gpasm-1.4.0 #1106 (Oct  6 2014) obj\Debug\gpi   12-6-2023  18:52:19         PAGE  1


LOC    OBJECT CODE    LINE  SOURCE TEXT
  VALUE

                      00001 ;--------------------------------------------------------
                      00002 ; File Created by SDCC : free open source ANSI-C Compiler
                      00003 ; Version 3.5.0 #9253 (Jun 20 2015) (MINGW32)
                      00004 ; This file was generated Wed Dec 06 18:52:19 2023
                      00005 ;--------------------------------------------------------
                      00006 ; PIC port for the 14-bit core
                      00007 ;--------------------------------------------------------
                      00008         .file   "gpio.c"
                      00009         list    p=16f877a
                      00010         radix dec
                      00011         include "p16f877a.inc"
                      00001         LIST
                      00002 
                      00003 ;==========================================================================
                      00004 ; Build date : Aug 07 2014
                      00005 ;  MPASM PIC16F877A processor include
                      00006 ; 
                      00007 ;  (c) Copyright 1999-2014 Microchip Technology, All rights reserved
                      00008 ;==========================================================================
                      00009 
                      00567         LIST
                      00012 ;--------------------------------------------------------
                      00013 ; external declarations
                      00014 ;--------------------------------------------------------
  0000                00015         extern  _STATUSbits
  0000                00016         extern  _PORTAbits
  0000                00017         extern  _PORTBbits
  0000                00018         extern  _PORTCbits
  0000                00019         extern  _PORTDbits
  0000                00020         extern  _PORTEbits
  0000                00021         extern  _INTCONbits
  0000                00022         extern  _PIR1bits
  0000                00023         extern  _PIR2bits
  0000                00024         extern  _T1CONbits
  0000                00025         extern  _T2CONbits
  0000                00026         extern  _SSPCONbits
  0000                00027         extern  _CCP1CONbits
  0000                00028         extern  _RCSTAbits
  0000                00029         extern  _CCP2CONbits
  0000                00030         extern  _ADCON0bits
  0000                00031         extern  _OPTION_REGbits
  0000                00032         extern  _TRISAbits
  0000                00033         extern  _TRISBbits
  0000                00034         extern  _TRISCbits
  0000                00035         extern  _TRISDbits
  0000                00036         extern  _TRISEbits
  0000                00037         extern  _PIE1bits
  0000                00038         extern  _PIE2bits
  0000                00039         extern  _PCONbits
  0000                00040         extern  _SSPCON2bits
  0000                00041         extern  _SSPSTATbits
  0000                00042         extern  _TXSTAbits
  0000                00043         extern  _CMCONbits
gpasm-1.4.0 #1106 (Oct  6 2014) obj\Debug\gpi   12-6-2023  18:52:19         PAGE  2


LOC    OBJECT CODE    LINE  SOURCE TEXT
  VALUE

  0000                00044         extern  _CVRCONbits
  0000                00045         extern  _ADCON1bits
  0000                00046         extern  _EECON1bits
  0000                00047         extern  _INDF
  0000                00048         extern  _TMR0
  0000                00049         extern  _PCL
  0000                00050         extern  _STATUS
  0000                00051         extern  _FSR
  0000                00052         extern  _PORTA
  0000                00053         extern  _PORTB
  0000                00054         extern  _PORTC
  0000                00055         extern  _PORTD
  0000                00056         extern  _PORTE
  0000                00057         extern  _PCLATH
  0000                00058         extern  _INTCON
  0000                00059         extern  _PIR1
  0000                00060         extern  _PIR2
  0000                00061         extern  _TMR1
  0000                00062         extern  _TMR1L
  0000                00063         extern  _TMR1H
  0000                00064         extern  _T1CON
  0000                00065         extern  _TMR2
  0000                00066         extern  _T2CON
  0000                00067         extern  _SSPBUF
  0000                00068         extern  _SSPCON
  0000                00069         extern  _CCPR1
  0000                00070         extern  _CCPR1L
  0000                00071         extern  _CCPR1H
  0000                00072         extern  _CCP1CON
  0000                00073         extern  _RCSTA
  0000                00074         extern  _TXREG
  0000                00075         extern  _RCREG
  0000                00076         extern  _CCPR2
  0000                00077         extern  _CCPR2L
  0000                00078         extern  _CCPR2H
  0000                00079         extern  _CCP2CON
  0000                00080         extern  _ADRESH
  0000                00081         extern  _ADCON0
  0000                00082         extern  _OPTION_REG
  0000                00083         extern  _TRISA
  0000                00084         extern  _TRISB
  0000                00085         extern  _TRISC
  0000                00086         extern  _TRISD
  0000                00087         extern  _TRISE
  0000                00088         extern  _PIE1
  0000                00089         extern  _PIE2
  0000                00090         extern  _PCON
  0000                00091         extern  _SSPCON2
  0000                00092         extern  _PR2
  0000                00093         extern  _SSPADD
  0000                00094         extern  _SSPSTAT
  0000                00095         extern  _TXSTA
  0000                00096         extern  _SPBRG
gpasm-1.4.0 #1106 (Oct  6 2014) obj\Debug\gpi   12-6-2023  18:52:19         PAGE  3


LOC    OBJECT CODE    LINE  SOURCE TEXT
  VALUE

  0000                00097         extern  _CMCON
  0000                00098         extern  _CVRCON
  0000                00099         extern  _ADRESL
  0000                00100         extern  _ADCON1
  0000                00101         extern  _EEDATA
  0000                00102         extern  _EEADR
  0000                00103         extern  _EEDATH
  0000                00104         extern  _EEADRH
  0000                00105         extern  _EECON1
  0000                00106         extern  _EECON2
                      00107 
  0000                00108         extern PSAVE
  0000                00109         extern SSAVE
  0000                00110         extern WSAVE
  0000                00111         extern STK12
  0000                00112         extern STK11
  0000                00113         extern STK10
  0000                00114         extern STK09
  0000                00115         extern STK08
  0000                00116         extern STK07
  0000                00117         extern STK06
  0000                00118         extern STK05
  0000                00119         extern STK04
  0000                00120         extern STK03
  0000                00121         extern STK02
  0000                00122         extern STK01
  0000                00123         extern STK00
                      00124 ;--------------------------------------------------------
                      00125 ; global declarations
                      00126 ;--------------------------------------------------------
  0000                00127         global  _GPIO_GetPortPinState
  0000                00128         global  _GPIO_SetPortPinState
  0000                00129         global  _GPIO_Update
  0000                00130         global  _GPIO_InitPortPin
                      00131 
                      00132 ;--------------------------------------------------------
                      00133 ; global definitions
                      00134 ;--------------------------------------------------------
                      00135 ;--------------------------------------------------------
                      00136 ; absolute symbol definitions
                      00137 ;--------------------------------------------------------
                      00138 ;--------------------------------------------------------
                      00139 ; compiler-defined variables
                      00140 ;--------------------------------------------------------
                      00141 UDL_gpio_0      udata
0000                  00142 r0x100A res     1
0001                  00143 r0x100B res     1
0002                  00144 r0x100C res     1
0003                  00145 r0x100D res     1
0004                  00146 r0x1006 res     1
0005                  00147 r0x1007 res     1
0006                  00148 r0x1008 res     1
0007                  00149 r0x1009 res     1
gpasm-1.4.0 #1106 (Oct  6 2014) obj\Debug\gpi   12-6-2023  18:52:19         PAGE  4


LOC    OBJECT CODE    LINE  SOURCE TEXT
  VALUE

0008                  00150 r0x1000 res     1
0009                  00151 r0x1001 res     1
000A                  00152 r0x1002 res     1
000B                  00153 r0x1003 res     1
000C                  00154 r0x1004 res     1
000D                  00155 r0x1005 res     1
                      00156 ;--------------------------------------------------------
                      00157 ; initialized data
                      00158 ;--------------------------------------------------------
                      00159 ;--------------------------------------------------------
                      00160 ; overlayable items in internal ram 
                      00161 ;--------------------------------------------------------
                      00162 ;       udata_ovr
                      00163 ;--------------------------------------------------------
                      00164 ; code
                      00165 ;--------------------------------------------------------
                      00166 code_gpio       code
                      00167 ;***
                      00168 ;  pBlock Stats: dbName = C
                      00169 ;***
                      00170 ;entry:  _GPIO_GetPortPinState  ;Function start
                      00171 ; 2 exit points
                      00172 ;has an exit
                      00173 ;7 compiler assigned registers:
                      00174 ;   r0x1000
                      00175 ;   STK00
                      00176 ;   r0x1001
                      00177 ;   r0x1002
                      00178 ;   r0x1003
                      00179 ;   r0x1004
                      00180 ;   r0x1005
                      00181 ;; Starting pCode block
                      00182 ;;; /home/sdcc-builder/build/sdcc-build/orig/sdcc/src/pic14/gen.c:2316:resultRemat *{*
                      00183 ;;; /home/sdcc-builder/build/sdcc-build/orig/sdcc/src/pic14/gen.c:2760:genLabel *{*
                      00184 ;; ***  genLabel  2763
                      00185 ;;; /home/sdcc-builder/build/sdcc-build/orig/sdcc/src/pic14/gen.c:2316:resultRemat *{*
                      00186 ;;; /home/sdcc-builder/build/sdcc-build/orig/sdcc/src/pic14/gen.c:2340:genFunction *{*
                      00187 ;; ***  genFunction  2342 curr label offset=45previous max_key=33 
0000                  00188 _GPIO_GetPortPinState   ;Function start
                      00189 ; 2 exit points
                      00190 ;;; /home/sdcc-builder/build/sdcc-build/orig/sdcc/src/pic14/gen.c:2316:resultRemat *{*
                      00191 ;;; /home/sdcc-builder/build/sdcc-build/orig/sdcc/src/pic14/gen.c:7358:genReceive *{*
                      00192 ;; ***  genReceive  7359
                      00193 ;;      694 register type nRegs=1
                      00194 ;;; /home/sdcc-builder/build/sdcc-build/orig/sdcc/src/pic14/gen.c:1907:assignResultValue *{*
                      00195 ;; ***  assignResultValue  1909
                      00196 ;;      line = 1911 result -=-, size=0, left AOP_REG=r0x1051, size=1, right -=-, size=0
                      00197 ;; >>> /home/sdcc-builder/build/sdcc-build/orig/sdcc/src/pic14/gen.c:1393:movwf
                      00198 ;;      1109 rIdx = r0x1051 
                      00199         .line   58; "gpio.c"    unsigned char GPIO_GetPortPinState(tPort port, unsigned char pin)
0000   ???? ????      00200         BANKSEL r0x1000
0002   00??           00201         MOVWF   r0x1000
                      00202 ;;; /home/sdcc-builder/build/sdcc-build/orig/sdcc/src/pic14/gen.c:2316:resultRemat *{*
gpasm-1.4.0 #1106 (Oct  6 2014) obj\Debug\gpi   12-6-2023  18:52:19         PAGE  5


LOC    OBJECT CODE    LINE  SOURCE TEXT
  VALUE

                      00203 ;;; /home/sdcc-builder/build/sdcc-build/orig/sdcc/src/pic14/gen.c:7358:genReceive *{*
                      00204 ;; ***  genReceive  7359
                      00205 ;;      694 register type nRegs=1
                      00206 ;;; /home/sdcc-builder/build/sdcc-build/orig/sdcc/src/pic14/gen.c:1907:assignResultValue *{*
                      00207 ;; ***  assignResultValue  1909
                      00208 ;;      line = 1911 result -=-, size=0, left AOP_REG=r0x1052, size=1, right -=-, size=0
                      00209 ;; >>> /home/sdcc-builder/build/sdcc-build/orig/sdcc/src/pic14/gen.c:1423:get_returnvalue
                      00210 ;; ***  popRegFromIdx,1042  , rIdx=0x7f
0003   08??           00211         MOVF    STK00,W
                      00212 ;; >>> /home/sdcc-builder/build/sdcc-build/orig/sdcc/src/pic14/gen.c:1393:movwf
                      00213 ;;      1109 rIdx = r0x1052 
0004   00??           00214         MOVWF   r0x1001
                      00215 ;;; /home/sdcc-builder/build/sdcc-build/orig/sdcc/src/pic14/gen.c:2316:resultRemat *{*
                      00216 ;;; /home/sdcc-builder/build/sdcc-build/orig/sdcc/src/pic14/gen.c:6927:genAssign *{*
                      00217 ;; ***  genAssign  6928
                      00218 ;;      694 register type nRegs=1
                      00219 ;;      line = 6937 result AOP_REG=r0x1053, size=1, left -=-, size=0, right AOP_LIT=0x00, size=1
                      00220 ;; ***  genAssign  7023
                      00221 ;; >>> /home/sdcc-builder/build/sdcc-build/orig/sdcc/src/pic14/gen.c:7035:genAssign
                      00222 ;;      1109 rIdx = r0x1053 
                      00223         .line   60; "gpio.c"    unsigned char ret = 0;
0005   01??           00224         CLRF    r0x1002
                      00225 ;;; /home/sdcc-builder/build/sdcc-build/orig/sdcc/src/pic14/gen.c:2316:resultRemat *{*
                      00226 ;;; /home/sdcc-builder/build/sdcc-build/orig/sdcc/src/pic14/gen.c:3547:genCmpGt *{*
                      00227 ;; ***  genCmpGt  3548
                      00228 ;;      694 register type nRegs=1
                      00229 ;;; /home/sdcc-builder/build/sdcc-build/orig/sdcc/src/pic14/gen.c:3294:genCmp *{*
                      00230 ;;swapping arguments (AOP_TYPEs 1/2)
                      00231 ;;unsigned compare: left >= lit(0x5=5), size=1
                      00232 ;; >>> /home/sdcc-builder/build/sdcc-build/orig/sdcc/src/pic14/gen.c:3265:pic14_mov2w_regOrLit
                      00233         .line   62; "gpio.c"    switch(port)
0006   3005           00234         MOVLW   0x05
                      00235 ;; >>> /home/sdcc-builder/build/sdcc-build/orig/sdcc/src/pic14/gen.c:3432:genCmp
                      00236 ;;      1109 rIdx = r0x1051 
0007   02??           00237         SUBWF   r0x1000,W
                      00238 ;;; /home/sdcc-builder/build/sdcc-build/orig/sdcc/src/pic14/gen.c:3237:genSkipc *{*
                      00239 ;; >>> /home/sdcc-builder/build/sdcc-build/orig/sdcc/src/pic14/gen.c:3242:genSkipc
0008   1803           00240         BTFSC   STATUS,0
                      00241 ;; >>> /home/sdcc-builder/build/sdcc-build/orig/sdcc/src/pic14/gen.c:3246:genSkipc
                      00242 ;; ***  popGetLabel  key=6, label offset 82
0009   2???           00243         GOTO    _00188_DS_
                      00244 ;;genSkipc:3247: created from rifx:027A5DF4
                      00245 ;;; /home/sdcc-builder/build/sdcc-build/orig/sdcc/src/pic14/gen.c:2316:resultRemat *{*
                      00246 ;;; /home/sdcc-builder/build/sdcc-build/orig/sdcc/src/pic14/gen.c:2316:resultRemat *{*
                      00247 ;;; /home/sdcc-builder/build/sdcc-build/orig/sdcc/src/pic14/gen.c:7071:genJumpTab *{*
                      00248 ;; ***  genJumpTab  7072
                      00249 ;;      694 register type nRegs=1
                      00250 ;; >>> /home/sdcc-builder/build/sdcc-build/orig/sdcc/src/pic14/gen.c:7087:genJumpTab
                      00251 ;; ***  popGetLabel  key=13, label offset 82
000A   30??           00252         MOVLW   HIGH(_00195_DS_)
                      00253 ;; >>> /home/sdcc-builder/build/sdcc-build/orig/sdcc/src/pic14/gen.c:7088:genJumpTab
000B   1283 1303      00254         BANKSEL PCLATH
000D   008A           00255         MOVWF   PCLATH
gpasm-1.4.0 #1106 (Oct  6 2014) obj\Debug\gpi   12-6-2023  18:52:19         PAGE  6


LOC    OBJECT CODE    LINE  SOURCE TEXT
  VALUE

                      00256 ;; >>> /home/sdcc-builder/build/sdcc-build/orig/sdcc/src/pic14/gen.c:7089:genJumpTab
                      00257 ;; ***  popGetLabel  key=13, label offset 82
000E   30??           00258         MOVLW   _00195_DS_
                      00259 ;; >>> /home/sdcc-builder/build/sdcc-build/orig/sdcc/src/pic14/gen.c:7090:genJumpTab
                      00260 ;;      1109 rIdx = r0x1051 
000F   ???? ????      00261         BANKSEL r0x1000
0011   07??           00262         ADDWF   r0x1000,W
                      00263 ;; >>> /home/sdcc-builder/build/sdcc-build/orig/sdcc/src/pic14/gen.c:7091:genJumpTab
0012   1C03           00264         BTFSS   STATUS,0
0013   2???           00265         GOTO    _00001_DS_
                      00266 ;; >>> /home/sdcc-builder/build/sdcc-build/orig/sdcc/src/pic14/gen.c:7092:genJumpTab
0014   1283 1303      00267         BANKSEL PCLATH
0016   0A8A           00268         INCF    PCLATH,F
                      00269 ;; >>> /home/sdcc-builder/build/sdcc-build/orig/sdcc/src/pic14/gen.c:7093:genJumpTab
0017                  00270 _00001_DS_
0017   0082           00271         MOVWF   PCL
                      00272 ;; >>> /home/sdcc-builder/build/sdcc-build/orig/sdcc/src/pic14/gen.c:7102:genJumpTab
                      00273 ;; ***  popGetLabel  key=1, label offset 82
0018                  00274 _00195_DS_
0018   2???           00275         GOTO    _00183_DS_
                      00276 ;; >>> /home/sdcc-builder/build/sdcc-build/orig/sdcc/src/pic14/gen.c:7102:genJumpTab
                      00277 ;; ***  popGetLabel  key=2, label offset 82
0019   2???           00278         GOTO    _00184_DS_
                      00279 ;; >>> /home/sdcc-builder/build/sdcc-build/orig/sdcc/src/pic14/gen.c:7102:genJumpTab
                      00280 ;; ***  popGetLabel  key=3, label offset 82
001A   2???           00281         GOTO    _00185_DS_
                      00282 ;; >>> /home/sdcc-builder/build/sdcc-build/orig/sdcc/src/pic14/gen.c:7102:genJumpTab
                      00283 ;; ***  popGetLabel  key=4, label offset 82
001B   2???           00284         GOTO    _00186_DS_
                      00285 ;; >>> /home/sdcc-builder/build/sdcc-build/orig/sdcc/src/pic14/gen.c:7102:genJumpTab
                      00286 ;; ***  popGetLabel  key=5, label offset 82
001C   2???           00287         GOTO    _00187_DS_
                      00288 ;;; /home/sdcc-builder/build/sdcc-build/orig/sdcc/src/pic14/gen.c:2316:resultRemat *{*
                      00289 ;;; /home/sdcc-builder/build/sdcc-build/orig/sdcc/src/pic14/gen.c:2760:genLabel *{*
                      00290 ;; ***  genLabel  2763
                      00291 ;;; /home/sdcc-builder/build/sdcc-build/orig/sdcc/src/pic14/gen.c:2316:resultRemat *{*
                      00292 ;;; /home/sdcc-builder/build/sdcc-build/orig/sdcc/src/pic14/gen.c:5418:genGenericShift *{*
                      00293 ;; ***  genGenericShift  5421
                      00294 ;;      694 register type nRegs=1
                      00295 ;;      694 register type nRegs=2
                      00296 ;; ***  mov2w  1381  offset=1
                      00297 ;; >>> /home/sdcc-builder/build/sdcc-build/orig/sdcc/src/pic14/gen.c:1384:mov2w
001D                  00298 _00183_DS_
                      00299         .line   65; "gpio.c"    ret =  READ_REGISTER_PIN(PORTA, pin);
001D   3000           00300         MOVLW   0x00
                      00301 ;; >>> /home/sdcc-builder/build/sdcc-build/orig/sdcc/src/pic14/gen.c:1393:movwf
                      00302 ;;      1109 rIdx = r0x1054 
001E   ???? ????      00303         BANKSEL r0x1003
0020   00??           00304         MOVWF   r0x1003
                      00305 ;; ***  mov2w  1381  offset=0
                      00306 ;; >>> /home/sdcc-builder/build/sdcc-build/orig/sdcc/src/pic14/gen.c:1384:mov2w
0021   3001           00307         MOVLW   0x01
                      00308 ;; >>> /home/sdcc-builder/build/sdcc-build/orig/sdcc/src/pic14/gen.c:1393:movwf
gpasm-1.4.0 #1106 (Oct  6 2014) obj\Debug\gpi   12-6-2023  18:52:19         PAGE  7


LOC    OBJECT CODE    LINE  SOURCE TEXT
  VALUE

                      00309 ;;      1109 rIdx = r0x1051 
0022   00??           00310         MOVWF   r0x1000
                      00311 ;; ***  addSign  861
                      00312 ;;; /home/sdcc-builder/build/sdcc-build/orig/sdcc/src/pic14/genarith.c:862:addSign *{*
                      00313 ;; ***  mov2w  1381  offset=0
                      00314 ;; >>> /home/sdcc-builder/build/sdcc-build/orig/sdcc/src/pic14/gen.c:1386:mov2w
                      00315 ;;      1109 rIdx = r0x1052 
0023   08??           00316         MOVF    r0x1001,W
                      00317 ;; >>> /home/sdcc-builder/build/sdcc-build/orig/sdcc/src/pic14/gen.c:5492:genGenericShift
0024   3C00           00318         SUBLW   0x00
                      00319 ;; >>> /home/sdcc-builder/build/sdcc-build/orig/sdcc/src/pic14/gen.c:5494:genGenericShift
0025   1903           00320         BTFSC   STATUS,2
                      00321 ;; >>> /home/sdcc-builder/build/sdcc-build/orig/sdcc/src/pic14/gen.c:5495:genGenericShift
                      00322 ;; ***  popGetLabel  key=15, label offset 82
0026   2???           00323         GOTO    _00197_DS_
                      00324 ;;; /home/sdcc-builder/build/sdcc-build/orig/sdcc/src/pic14/gen.c:5369:genMultiAsm *{*
                      00325 ;; ***  genMultiAsm  5370
                      00326 ;; >>> /home/sdcc-builder/build/sdcc-build/orig/sdcc/src/pic14/gen.c:5387:genMultiAsm
                      00327 ;;      1109 rIdx = r0x1051 
0027                  00328 _00196_DS_
0027   ???? ????      00329         BANKSEL r0x1000
0029   0D??           00330         RLF     r0x1000,F
                      00331 ;; >>> /home/sdcc-builder/build/sdcc-build/orig/sdcc/src/pic14/gen.c:5387:genMultiAsm
                      00332 ;;      1109 rIdx = r0x1054 
002A   0D??           00333         RLF     r0x1003,F
                      00334 ;; >>> /home/sdcc-builder/build/sdcc-build/orig/sdcc/src/pic14/gen.c:5501:genGenericShift
002B   3E01           00335         ADDLW   0x01
                      00336 ;; >>> /home/sdcc-builder/build/sdcc-build/orig/sdcc/src/pic14/gen.c:5502:genGenericShift
002C   1C03           00337         BTFSS   STATUS,0
                      00338 ;; >>> /home/sdcc-builder/build/sdcc-build/orig/sdcc/src/pic14/gen.c:5503:genGenericShift
                      00339 ;; ***  popGetLabel  key=14, label offset 82
002D   2???           00340         GOTO    _00196_DS_
                      00341 ;;; /home/sdcc-builder/build/sdcc-build/orig/sdcc/src/pic14/gen.c:2316:resultRemat *{*
                      00342 ;;; /home/sdcc-builder/build/sdcc-build/orig/sdcc/src/pic14/gen.c:7120:genCast *{*
                      00343 ;; ***  genCast  7121
                      00344 ;; ***  aopForSym 315
                      00345 ;;      327 sym->rname = _PORTA, size = 1
                      00346 ;;      694 register type nRegs=2
                      00347 ;;      line = 7129 result AOP_REG=r0x1055, size=2, left -=-, size=0, right AOP_DIR=_PORTA, size=1
                      00348 ;; >>> /home/sdcc-builder/build/sdcc-build/orig/sdcc/src/pic14/gen.c:7298:genCast
                      00349 ;;      1009
                      00350 ;;      1028  _PORTA   offset=0
002E                  00351 _00197_DS_
002E   ???? ????      00352         BANKSEL _PORTA
0030   08??           00353         MOVF    _PORTA,W
                      00354 ;; >>> /home/sdcc-builder/build/sdcc-build/orig/sdcc/src/pic14/gen.c:7299:genCast
                      00355 ;;      1109 rIdx = r0x1055 
0031   ???? ????      00356         BANKSEL r0x1004
0033   00??           00357         MOVWF   r0x1004
                      00358 ;; ***  addSign  861
                      00359 ;;; /home/sdcc-builder/build/sdcc-build/orig/sdcc/src/pic14/genarith.c:862:addSign *{*
                      00360 ;; >>> /home/sdcc-builder/build/sdcc-build/orig/sdcc/src/pic14/genarith.c:881:addSign
                      00361 ;;      1109 rIdx = r0x1056 
gpasm-1.4.0 #1106 (Oct  6 2014) obj\Debug\gpi   12-6-2023  18:52:19         PAGE  8


LOC    OBJECT CODE    LINE  SOURCE TEXT
  VALUE

0034   01??           00362         CLRF    r0x1005
                      00363 ;;; /home/sdcc-builder/build/sdcc-build/orig/sdcc/src/pic14/gen.c:2316:resultRemat *{*
                      00364 ;;; /home/sdcc-builder/build/sdcc-build/orig/sdcc/src/pic14/gen.c:3919:genAnd *{*
                      00365 ;; ***  genAnd  3920
                      00366 ;;      694 register type nRegs=2
                      00367 ;;      694 register type nRegs=2
                      00368 ;;      694 register type nRegs=2
                      00369 ;;      line = 3955 result AOP_REG=r0x1051, size=2, left AOP_REG=r0x1051, size=2, right AOP_REG=r0x1055,
                             size=2
                      00370 ;; >>> /home/sdcc-builder/build/sdcc-build/orig/sdcc/src/pic14/gen.c:4137:genAnd
                      00371 ;;      1109 rIdx = r0x1055 
0035   08??           00372         MOVF    r0x1004,W
                      00373 ;; >>> /home/sdcc-builder/build/sdcc-build/orig/sdcc/src/pic14/gen.c:4138:genAnd
                      00374 ;;      1109 rIdx = r0x1051 
0036   05??           00375         ANDWF   r0x1000,F
                      00376 ;; >>> /home/sdcc-builder/build/sdcc-build/orig/sdcc/src/pic14/gen.c:4137:genAnd
                      00377 ;;      1109 rIdx = r0x1056 
0037   3000           00378         MOVLW   0x00
                      00379 ;; >>> /home/sdcc-builder/build/sdcc-build/orig/sdcc/src/pic14/gen.c:4138:genAnd
                      00380 ;;      1109 rIdx = r0x1054 
0038   05??           00381         ANDWF   r0x1003,F
                      00382 ;;; /home/sdcc-builder/build/sdcc-build/orig/sdcc/src/pic14/gen.c:2316:resultRemat *{*
                      00383 ;;; /home/sdcc-builder/build/sdcc-build/orig/sdcc/src/pic14/gen.c:5418:genGenericShift *{*
                      00384 ;; ***  genGenericShift  5421
                      00385 ;;      694 register type nRegs=1
                      00386 ;;      694 register type nRegs=2
                      00387 ;;      694 register type nRegs=2
                      00388 ;; ***  mov2w  1381  offset=1
                      00389 ;; >>> /home/sdcc-builder/build/sdcc-build/orig/sdcc/src/pic14/gen.c:1386:mov2w
                      00390 ;;      1109 rIdx = r0x1054 
0039   08??           00391         MOVF    r0x1003,W
                      00392 ;; >>> /home/sdcc-builder/build/sdcc-build/orig/sdcc/src/pic14/gen.c:1393:movwf
                      00393 ;;      1109 rIdx = r0x1056 
003A   00??           00394         MOVWF   r0x1005
                      00395 ;; ***  mov2w  1381  offset=0
                      00396 ;; >>> /home/sdcc-builder/build/sdcc-build/orig/sdcc/src/pic14/gen.c:1386:mov2w
                      00397 ;;      1109 rIdx = r0x1051 
003B   08??           00398         MOVF    r0x1000,W
                      00399 ;; >>> /home/sdcc-builder/build/sdcc-build/orig/sdcc/src/pic14/gen.c:1393:movwf
                      00400 ;;      1109 rIdx = r0x1055 
003C   00??           00401         MOVWF   r0x1004
                      00402 ;; ***  addSign  861
                      00403 ;;; /home/sdcc-builder/build/sdcc-build/orig/sdcc/src/pic14/genarith.c:862:addSign *{*
                      00404 ;; ***  mov2w  1381  offset=0
                      00405 ;; >>> /home/sdcc-builder/build/sdcc-build/orig/sdcc/src/pic14/gen.c:1386:mov2w
                      00406 ;;      1109 rIdx = r0x1052 
003D   08??           00407         MOVF    r0x1001,W
                      00408 ;; >>> /home/sdcc-builder/build/sdcc-build/orig/sdcc/src/pic14/gen.c:5492:genGenericShift
003E   3C00           00409         SUBLW   0x00
                      00410 ;; >>> /home/sdcc-builder/build/sdcc-build/orig/sdcc/src/pic14/gen.c:5494:genGenericShift
003F   1903           00411         BTFSC   STATUS,2
                      00412 ;; >>> /home/sdcc-builder/build/sdcc-build/orig/sdcc/src/pic14/gen.c:5495:genGenericShift
                      00413 ;; ***  popGetLabel  key=17, label offset 82
gpasm-1.4.0 #1106 (Oct  6 2014) obj\Debug\gpi   12-6-2023  18:52:19         PAGE  9


LOC    OBJECT CODE    LINE  SOURCE TEXT
  VALUE

0040   2???           00414         GOTO    _00199_DS_
                      00415 ;;; /home/sdcc-builder/build/sdcc-build/orig/sdcc/src/pic14/gen.c:5400:loadSignToC *{*
                      00416 ;; >>> /home/sdcc-builder/build/sdcc-build/orig/sdcc/src/pic14/gen.c:5403:loadSignToC
0041                  00417 _00198_DS_
0041   1003           00418         BCF     STATUS,0
                      00419 ;; >>> /home/sdcc-builder/build/sdcc-build/orig/sdcc/src/pic14/gen.c:5404:loadSignToC
0042   ???? ????      00420         BANKSEL r0x1005
0044   1B??           00421         BTFSC   r0x1005,7
                      00422 ;; >>> /home/sdcc-builder/build/sdcc-build/orig/sdcc/src/pic14/gen.c:5405:loadSignToC
0045   1403           00423         BSF     STATUS,0
                      00424 ;;; /home/sdcc-builder/build/sdcc-build/orig/sdcc/src/pic14/gen.c:5369:genMultiAsm *{*
                      00425 ;; ***  genMultiAsm  5370
                      00426 ;; >>> /home/sdcc-builder/build/sdcc-build/orig/sdcc/src/pic14/gen.c:5387:genMultiAsm
                      00427 ;;      1109 rIdx = r0x1056 
0046   0C??           00428         RRF     r0x1005,F
                      00429 ;; >>> /home/sdcc-builder/build/sdcc-build/orig/sdcc/src/pic14/gen.c:5387:genMultiAsm
                      00430 ;;      1109 rIdx = r0x1055 
0047   0C??           00431         RRF     r0x1004,F
                      00432 ;; >>> /home/sdcc-builder/build/sdcc-build/orig/sdcc/src/pic14/gen.c:5501:genGenericShift
0048   3E01           00433         ADDLW   0x01
                      00434 ;; >>> /home/sdcc-builder/build/sdcc-build/orig/sdcc/src/pic14/gen.c:5502:genGenericShift
0049   1C03           00435         BTFSS   STATUS,0
                      00436 ;; >>> /home/sdcc-builder/build/sdcc-build/orig/sdcc/src/pic14/gen.c:5503:genGenericShift
                      00437 ;; ***  popGetLabel  key=16, label offset 82
004A   2???           00438         GOTO    _00198_DS_
                      00439 ;;; /home/sdcc-builder/build/sdcc-build/orig/sdcc/src/pic14/gen.c:2316:resultRemat *{*
                      00440 ;;; /home/sdcc-builder/build/sdcc-build/orig/sdcc/src/pic14/gen.c:7120:genCast *{*
                      00441 ;; ***  genCast  7121
                      00442 ;;      694 register type nRegs=2
                      00443 ;;      694 register type nRegs=1
                      00444 ;;      line = 7129 result AOP_REG=r0x1053, size=1, left -=-, size=0, right AOP_REG=r0x1055, size=2
                      00445 ;; ***  genCast  7253
                      00446 ;; >>> /home/sdcc-builder/build/sdcc-build/orig/sdcc/src/pic14/gen.c:7277:genCast
                      00447 ;;      1109 rIdx = r0x1055 
004B                  00448 _00199_DS_
004B   ???? ????      00449         BANKSEL r0x1004
004D   08??           00450         MOVF    r0x1004,W
                      00451 ;; >>> /home/sdcc-builder/build/sdcc-build/orig/sdcc/src/pic14/gen.c:7278:genCast
                      00452 ;;      1109 rIdx = r0x1053 
004E   00??           00453         MOVWF   r0x1002
                      00454 ;;; /home/sdcc-builder/build/sdcc-build/orig/sdcc/src/pic14/gen.c:2316:resultRemat *{*
                      00455 ;;; /home/sdcc-builder/build/sdcc-build/orig/sdcc/src/pic14/gen.c:2778:genGoto *{*
                      00456 ;; >>> /home/sdcc-builder/build/sdcc-build/orig/sdcc/src/pic14/gen.c:2780:genGoto
                      00457 ;; ***  popGetLabel  key=6, label offset 82
                      00458         .line   66; "gpio.c"    break;
004F   2???           00459         GOTO    _00188_DS_
                      00460 ;;; /home/sdcc-builder/build/sdcc-build/orig/sdcc/src/pic14/gen.c:2316:resultRemat *{*
                      00461 ;;; /home/sdcc-builder/build/sdcc-build/orig/sdcc/src/pic14/gen.c:2760:genLabel *{*
                      00462 ;; ***  genLabel  2763
                      00463 ;;; /home/sdcc-builder/build/sdcc-build/orig/sdcc/src/pic14/gen.c:2316:resultRemat *{*
                      00464 ;;; /home/sdcc-builder/build/sdcc-build/orig/sdcc/src/pic14/gen.c:5418:genGenericShift *{*
                      00465 ;; ***  genGenericShift  5421
                      00466 ;;      694 register type nRegs=1
gpasm-1.4.0 #1106 (Oct  6 2014) obj\Debug\gpi   12-6-2023  18:52:19         PAGE 10


LOC    OBJECT CODE    LINE  SOURCE TEXT
  VALUE

                      00467 ;;      694 register type nRegs=2
                      00468 ;; ***  mov2w  1381  offset=1
                      00469 ;; >>> /home/sdcc-builder/build/sdcc-build/orig/sdcc/src/pic14/gen.c:1384:mov2w
0050                  00470 _00184_DS_
                      00471         .line   68; "gpio.c"    ret =  READ_REGISTER_PIN(PORTB, pin);
0050   3000           00472         MOVLW   0x00
                      00473 ;; >>> /home/sdcc-builder/build/sdcc-build/orig/sdcc/src/pic14/gen.c:1393:movwf
                      00474 ;;      1109 rIdx = r0x1054 
0051   ???? ????      00475         BANKSEL r0x1003
0053   00??           00476         MOVWF   r0x1003
                      00477 ;; ***  mov2w  1381  offset=0
                      00478 ;; >>> /home/sdcc-builder/build/sdcc-build/orig/sdcc/src/pic14/gen.c:1384:mov2w
0054   3001           00479         MOVLW   0x01
                      00480 ;; >>> /home/sdcc-builder/build/sdcc-build/orig/sdcc/src/pic14/gen.c:1393:movwf
                      00481 ;;      1109 rIdx = r0x1051 
0055   00??           00482         MOVWF   r0x1000
                      00483 ;; ***  addSign  861
                      00484 ;;; /home/sdcc-builder/build/sdcc-build/orig/sdcc/src/pic14/genarith.c:862:addSign *{*
                      00485 ;; ***  mov2w  1381  offset=0
                      00486 ;; >>> /home/sdcc-builder/build/sdcc-build/orig/sdcc/src/pic14/gen.c:1386:mov2w
                      00487 ;;      1109 rIdx = r0x1052 
0056   08??           00488         MOVF    r0x1001,W
                      00489 ;; >>> /home/sdcc-builder/build/sdcc-build/orig/sdcc/src/pic14/gen.c:5492:genGenericShift
0057   3C00           00490         SUBLW   0x00
                      00491 ;; >>> /home/sdcc-builder/build/sdcc-build/orig/sdcc/src/pic14/gen.c:5494:genGenericShift
0058   1903           00492         BTFSC   STATUS,2
                      00493 ;; >>> /home/sdcc-builder/build/sdcc-build/orig/sdcc/src/pic14/gen.c:5495:genGenericShift
                      00494 ;; ***  popGetLabel  key=19, label offset 82
0059   2???           00495         GOTO    _00201_DS_
                      00496 ;;; /home/sdcc-builder/build/sdcc-build/orig/sdcc/src/pic14/gen.c:5369:genMultiAsm *{*
                      00497 ;; ***  genMultiAsm  5370
                      00498 ;; >>> /home/sdcc-builder/build/sdcc-build/orig/sdcc/src/pic14/gen.c:5387:genMultiAsm
                      00499 ;;      1109 rIdx = r0x1051 
005A                  00500 _00200_DS_
005A   ???? ????      00501         BANKSEL r0x1000
005C   0D??           00502         RLF     r0x1000,F
                      00503 ;; >>> /home/sdcc-builder/build/sdcc-build/orig/sdcc/src/pic14/gen.c:5387:genMultiAsm
                      00504 ;;      1109 rIdx = r0x1054 
005D   0D??           00505         RLF     r0x1003,F
                      00506 ;; >>> /home/sdcc-builder/build/sdcc-build/orig/sdcc/src/pic14/gen.c:5501:genGenericShift
005E   3E01           00507         ADDLW   0x01
                      00508 ;; >>> /home/sdcc-builder/build/sdcc-build/orig/sdcc/src/pic14/gen.c:5502:genGenericShift
005F   1C03           00509         BTFSS   STATUS,0
                      00510 ;; >>> /home/sdcc-builder/build/sdcc-build/orig/sdcc/src/pic14/gen.c:5503:genGenericShift
                      00511 ;; ***  popGetLabel  key=18, label offset 82
0060   2???           00512         GOTO    _00200_DS_
                      00513 ;;; /home/sdcc-builder/build/sdcc-build/orig/sdcc/src/pic14/gen.c:2316:resultRemat *{*
                      00514 ;;; /home/sdcc-builder/build/sdcc-build/orig/sdcc/src/pic14/gen.c:7120:genCast *{*
                      00515 ;; ***  genCast  7121
                      00516 ;; ***  aopForSym 315
                      00517 ;;      327 sym->rname = _PORTB, size = 1
                      00518 ;;      694 register type nRegs=2
                      00519 ;;      line = 7129 result AOP_REG=r0x1055, size=2, left -=-, size=0, right AOP_DIR=_PORTB, size=1
gpasm-1.4.0 #1106 (Oct  6 2014) obj\Debug\gpi   12-6-2023  18:52:19         PAGE 11


LOC    OBJECT CODE    LINE  SOURCE TEXT
  VALUE

                      00520 ;; >>> /home/sdcc-builder/build/sdcc-build/orig/sdcc/src/pic14/gen.c:7298:genCast
                      00521 ;;      1009
                      00522 ;;      1028  _PORTB   offset=0
0061                  00523 _00201_DS_
0061   ???? ????      00524         BANKSEL _PORTB
0063   08??           00525         MOVF    _PORTB,W
                      00526 ;; >>> /home/sdcc-builder/build/sdcc-build/orig/sdcc/src/pic14/gen.c:7299:genCast
                      00527 ;;      1109 rIdx = r0x1055 
0064   ???? ????      00528         BANKSEL r0x1004
0066   00??           00529         MOVWF   r0x1004
                      00530 ;; ***  addSign  861
                      00531 ;;; /home/sdcc-builder/build/sdcc-build/orig/sdcc/src/pic14/genarith.c:862:addSign *{*
                      00532 ;; >>> /home/sdcc-builder/build/sdcc-build/orig/sdcc/src/pic14/genarith.c:881:addSign
                      00533 ;;      1109 rIdx = r0x1056 
0067   01??           00534         CLRF    r0x1005
                      00535 ;;; /home/sdcc-builder/build/sdcc-build/orig/sdcc/src/pic14/gen.c:2316:resultRemat *{*
                      00536 ;;; /home/sdcc-builder/build/sdcc-build/orig/sdcc/src/pic14/gen.c:3919:genAnd *{*
                      00537 ;; ***  genAnd  3920
                      00538 ;;      694 register type nRegs=2
                      00539 ;;      694 register type nRegs=2
                      00540 ;;      694 register type nRegs=2
                      00541 ;;      line = 3955 result AOP_REG=r0x1051, size=2, left AOP_REG=r0x1051, size=2, right AOP_REG=r0x1055,
                             size=2
                      00542 ;; >>> /home/sdcc-builder/build/sdcc-build/orig/sdcc/src/pic14/gen.c:4137:genAnd
                      00543 ;;      1109 rIdx = r0x1055 
0068   08??           00544         MOVF    r0x1004,W
                      00545 ;; >>> /home/sdcc-builder/build/sdcc-build/orig/sdcc/src/pic14/gen.c:4138:genAnd
                      00546 ;;      1109 rIdx = r0x1051 
0069   05??           00547         ANDWF   r0x1000,F
                      00548 ;; >>> /home/sdcc-builder/build/sdcc-build/orig/sdcc/src/pic14/gen.c:4137:genAnd
                      00549 ;;      1109 rIdx = r0x1056 
006A   3000           00550         MOVLW   0x00
                      00551 ;; >>> /home/sdcc-builder/build/sdcc-build/orig/sdcc/src/pic14/gen.c:4138:genAnd
                      00552 ;;      1109 rIdx = r0x1054 
006B   05??           00553         ANDWF   r0x1003,F
                      00554 ;;; /home/sdcc-builder/build/sdcc-build/orig/sdcc/src/pic14/gen.c:2316:resultRemat *{*
                      00555 ;;; /home/sdcc-builder/build/sdcc-build/orig/sdcc/src/pic14/gen.c:5418:genGenericShift *{*
                      00556 ;; ***  genGenericShift  5421
                      00557 ;;      694 register type nRegs=1
                      00558 ;;      694 register type nRegs=2
                      00559 ;;      694 register type nRegs=2
                      00560 ;; ***  mov2w  1381  offset=1
                      00561 ;; >>> /home/sdcc-builder/build/sdcc-build/orig/sdcc/src/pic14/gen.c:1386:mov2w
                      00562 ;;      1109 rIdx = r0x1054 
006C   08??           00563         MOVF    r0x1003,W
                      00564 ;; >>> /home/sdcc-builder/build/sdcc-build/orig/sdcc/src/pic14/gen.c:1393:movwf
                      00565 ;;      1109 rIdx = r0x1056 
006D   00??           00566         MOVWF   r0x1005
                      00567 ;; ***  mov2w  1381  offset=0
                      00568 ;; >>> /home/sdcc-builder/build/sdcc-build/orig/sdcc/src/pic14/gen.c:1386:mov2w
                      00569 ;;      1109 rIdx = r0x1051 
006E   08??           00570         MOVF    r0x1000,W
                      00571 ;; >>> /home/sdcc-builder/build/sdcc-build/orig/sdcc/src/pic14/gen.c:1393:movwf
gpasm-1.4.0 #1106 (Oct  6 2014) obj\Debug\gpi   12-6-2023  18:52:19         PAGE 12


LOC    OBJECT CODE    LINE  SOURCE TEXT
  VALUE

                      00572 ;;      1109 rIdx = r0x1055 
006F   00??           00573         MOVWF   r0x1004
                      00574 ;; ***  addSign  861
                      00575 ;;; /home/sdcc-builder/build/sdcc-build/orig/sdcc/src/pic14/genarith.c:862:addSign *{*
                      00576 ;; ***  mov2w  1381  offset=0
                      00577 ;; >>> /home/sdcc-builder/build/sdcc-build/orig/sdcc/src/pic14/gen.c:1386:mov2w
                      00578 ;;      1109 rIdx = r0x1052 
0070   08??           00579         MOVF    r0x1001,W
                      00580 ;; >>> /home/sdcc-builder/build/sdcc-build/orig/sdcc/src/pic14/gen.c:5492:genGenericShift
0071   3C00           00581         SUBLW   0x00
                      00582 ;; >>> /home/sdcc-builder/build/sdcc-build/orig/sdcc/src/pic14/gen.c:5494:genGenericShift
0072   1903           00583         BTFSC   STATUS,2
                      00584 ;; >>> /home/sdcc-builder/build/sdcc-build/orig/sdcc/src/pic14/gen.c:5495:genGenericShift
                      00585 ;; ***  popGetLabel  key=21, label offset 82
0073   2???           00586         GOTO    _00203_DS_
                      00587 ;;; /home/sdcc-builder/build/sdcc-build/orig/sdcc/src/pic14/gen.c:5400:loadSignToC *{*
                      00588 ;; >>> /home/sdcc-builder/build/sdcc-build/orig/sdcc/src/pic14/gen.c:5403:loadSignToC
0074                  00589 _00202_DS_
0074   1003           00590         BCF     STATUS,0
                      00591 ;; >>> /home/sdcc-builder/build/sdcc-build/orig/sdcc/src/pic14/gen.c:5404:loadSignToC
0075   ???? ????      00592         BANKSEL r0x1005
0077   1B??           00593         BTFSC   r0x1005,7
                      00594 ;; >>> /home/sdcc-builder/build/sdcc-build/orig/sdcc/src/pic14/gen.c:5405:loadSignToC
0078   1403           00595         BSF     STATUS,0
                      00596 ;;; /home/sdcc-builder/build/sdcc-build/orig/sdcc/src/pic14/gen.c:5369:genMultiAsm *{*
                      00597 ;; ***  genMultiAsm  5370
                      00598 ;; >>> /home/sdcc-builder/build/sdcc-build/orig/sdcc/src/pic14/gen.c:5387:genMultiAsm
                      00599 ;;      1109 rIdx = r0x1056 
0079   0C??           00600         RRF     r0x1005,F
                      00601 ;; >>> /home/sdcc-builder/build/sdcc-build/orig/sdcc/src/pic14/gen.c:5387:genMultiAsm
                      00602 ;;      1109 rIdx = r0x1055 
007A   0C??           00603         RRF     r0x1004,F
                      00604 ;; >>> /home/sdcc-builder/build/sdcc-build/orig/sdcc/src/pic14/gen.c:5501:genGenericShift
007B   3E01           00605         ADDLW   0x01
                      00606 ;; >>> /home/sdcc-builder/build/sdcc-build/orig/sdcc/src/pic14/gen.c:5502:genGenericShift
007C   1C03           00607         BTFSS   STATUS,0
                      00608 ;; >>> /home/sdcc-builder/build/sdcc-build/orig/sdcc/src/pic14/gen.c:5503:genGenericShift
                      00609 ;; ***  popGetLabel  key=20, label offset 82
007D   2???           00610         GOTO    _00202_DS_
                      00611 ;;; /home/sdcc-builder/build/sdcc-build/orig/sdcc/src/pic14/gen.c:2316:resultRemat *{*
                      00612 ;;; /home/sdcc-builder/build/sdcc-build/orig/sdcc/src/pic14/gen.c:7120:genCast *{*
                      00613 ;; ***  genCast  7121
                      00614 ;;      694 register type nRegs=2
                      00615 ;;      694 register type nRegs=1
                      00616 ;;      line = 7129 result AOP_REG=r0x1053, size=1, left -=-, size=0, right AOP_REG=r0x1055, size=2
                      00617 ;; ***  genCast  7253
                      00618 ;; >>> /home/sdcc-builder/build/sdcc-build/orig/sdcc/src/pic14/gen.c:7277:genCast
                      00619 ;;      1109 rIdx = r0x1055 
007E                  00620 _00203_DS_
007E   ???? ????      00621         BANKSEL r0x1004
0080   08??           00622         MOVF    r0x1004,W
                      00623 ;; >>> /home/sdcc-builder/build/sdcc-build/orig/sdcc/src/pic14/gen.c:7278:genCast
                      00624 ;;      1109 rIdx = r0x1053 
gpasm-1.4.0 #1106 (Oct  6 2014) obj\Debug\gpi   12-6-2023  18:52:19         PAGE 13


LOC    OBJECT CODE    LINE  SOURCE TEXT
  VALUE

0081   00??           00625         MOVWF   r0x1002
                      00626 ;;; /home/sdcc-builder/build/sdcc-build/orig/sdcc/src/pic14/gen.c:2316:resultRemat *{*
                      00627 ;;; /home/sdcc-builder/build/sdcc-build/orig/sdcc/src/pic14/gen.c:2778:genGoto *{*
                      00628 ;; >>> /home/sdcc-builder/build/sdcc-build/orig/sdcc/src/pic14/gen.c:2780:genGoto
                      00629 ;; ***  popGetLabel  key=6, label offset 82
                      00630         .line   69; "gpio.c"    break;
0082   2???           00631         GOTO    _00188_DS_
                      00632 ;;; /home/sdcc-builder/build/sdcc-build/orig/sdcc/src/pic14/gen.c:2316:resultRemat *{*
                      00633 ;;; /home/sdcc-builder/build/sdcc-build/orig/sdcc/src/pic14/gen.c:2760:genLabel *{*
                      00634 ;; ***  genLabel  2763
                      00635 ;;; /home/sdcc-builder/build/sdcc-build/orig/sdcc/src/pic14/gen.c:2316:resultRemat *{*
                      00636 ;;; /home/sdcc-builder/build/sdcc-build/orig/sdcc/src/pic14/gen.c:5418:genGenericShift *{*
                      00637 ;; ***  genGenericShift  5421
                      00638 ;;      694 register type nRegs=1
                      00639 ;;      694 register type nRegs=2
                      00640 ;; ***  mov2w  1381  offset=1
                      00641 ;; >>> /home/sdcc-builder/build/sdcc-build/orig/sdcc/src/pic14/gen.c:1384:mov2w
0083                  00642 _00185_DS_
                      00643         .line   71; "gpio.c"    ret =  READ_REGISTER_PIN(PORTC, pin);
0083   3000           00644         MOVLW   0x00
                      00645 ;; >>> /home/sdcc-builder/build/sdcc-build/orig/sdcc/src/pic14/gen.c:1393:movwf
                      00646 ;;      1109 rIdx = r0x1054 
0084   ???? ????      00647         BANKSEL r0x1003
0086   00??           00648         MOVWF   r0x1003
                      00649 ;; ***  mov2w  1381  offset=0
                      00650 ;; >>> /home/sdcc-builder/build/sdcc-build/orig/sdcc/src/pic14/gen.c:1384:mov2w
0087   3001           00651         MOVLW   0x01
                      00652 ;; >>> /home/sdcc-builder/build/sdcc-build/orig/sdcc/src/pic14/gen.c:1393:movwf
                      00653 ;;      1109 rIdx = r0x1051 
0088   00??           00654         MOVWF   r0x1000
                      00655 ;; ***  addSign  861
                      00656 ;;; /home/sdcc-builder/build/sdcc-build/orig/sdcc/src/pic14/genarith.c:862:addSign *{*
                      00657 ;; ***  mov2w  1381  offset=0
                      00658 ;; >>> /home/sdcc-builder/build/sdcc-build/orig/sdcc/src/pic14/gen.c:1386:mov2w
                      00659 ;;      1109 rIdx = r0x1052 
0089   08??           00660         MOVF    r0x1001,W
                      00661 ;; >>> /home/sdcc-builder/build/sdcc-build/orig/sdcc/src/pic14/gen.c:5492:genGenericShift
008A   3C00           00662         SUBLW   0x00
                      00663 ;; >>> /home/sdcc-builder/build/sdcc-build/orig/sdcc/src/pic14/gen.c:5494:genGenericShift
008B   1903           00664         BTFSC   STATUS,2
                      00665 ;; >>> /home/sdcc-builder/build/sdcc-build/orig/sdcc/src/pic14/gen.c:5495:genGenericShift
                      00666 ;; ***  popGetLabel  key=23, label offset 82
008C   2???           00667         GOTO    _00205_DS_
                      00668 ;;; /home/sdcc-builder/build/sdcc-build/orig/sdcc/src/pic14/gen.c:5369:genMultiAsm *{*
                      00669 ;; ***  genMultiAsm  5370
                      00670 ;; >>> /home/sdcc-builder/build/sdcc-build/orig/sdcc/src/pic14/gen.c:5387:genMultiAsm
                      00671 ;;      1109 rIdx = r0x1051 
008D                  00672 _00204_DS_
008D   ???? ????      00673         BANKSEL r0x1000
008F   0D??           00674         RLF     r0x1000,F
                      00675 ;; >>> /home/sdcc-builder/build/sdcc-build/orig/sdcc/src/pic14/gen.c:5387:genMultiAsm
                      00676 ;;      1109 rIdx = r0x1054 
0090   0D??           00677         RLF     r0x1003,F
gpasm-1.4.0 #1106 (Oct  6 2014) obj\Debug\gpi   12-6-2023  18:52:19         PAGE 14


LOC    OBJECT CODE    LINE  SOURCE TEXT
  VALUE

                      00678 ;; >>> /home/sdcc-builder/build/sdcc-build/orig/sdcc/src/pic14/gen.c:5501:genGenericShift
0091   3E01           00679         ADDLW   0x01
                      00680 ;; >>> /home/sdcc-builder/build/sdcc-build/orig/sdcc/src/pic14/gen.c:5502:genGenericShift
0092   1C03           00681         BTFSS   STATUS,0
                      00682 ;; >>> /home/sdcc-builder/build/sdcc-build/orig/sdcc/src/pic14/gen.c:5503:genGenericShift
                      00683 ;; ***  popGetLabel  key=22, label offset 82
0093   2???           00684         GOTO    _00204_DS_
                      00685 ;;; /home/sdcc-builder/build/sdcc-build/orig/sdcc/src/pic14/gen.c:2316:resultRemat *{*
                      00686 ;;; /home/sdcc-builder/build/sdcc-build/orig/sdcc/src/pic14/gen.c:7120:genCast *{*
                      00687 ;; ***  genCast  7121
                      00688 ;; ***  aopForSym 315
                      00689 ;;      327 sym->rname = _PORTC, size = 1
                      00690 ;;      694 register type nRegs=2
                      00691 ;;      line = 7129 result AOP_REG=r0x1055, size=2, left -=-, size=0, right AOP_DIR=_PORTC, size=1
                      00692 ;; >>> /home/sdcc-builder/build/sdcc-build/orig/sdcc/src/pic14/gen.c:7298:genCast
                      00693 ;;      1009
                      00694 ;;      1028  _PORTC   offset=0
0094                  00695 _00205_DS_
0094   ???? ????      00696         BANKSEL _PORTC
0096   08??           00697         MOVF    _PORTC,W
                      00698 ;; >>> /home/sdcc-builder/build/sdcc-build/orig/sdcc/src/pic14/gen.c:7299:genCast
                      00699 ;;      1109 rIdx = r0x1055 
0097   ???? ????      00700         BANKSEL r0x1004
0099   00??           00701         MOVWF   r0x1004
                      00702 ;; ***  addSign  861
                      00703 ;;; /home/sdcc-builder/build/sdcc-build/orig/sdcc/src/pic14/genarith.c:862:addSign *{*
                      00704 ;; >>> /home/sdcc-builder/build/sdcc-build/orig/sdcc/src/pic14/genarith.c:881:addSign
                      00705 ;;      1109 rIdx = r0x1056 
009A   01??           00706         CLRF    r0x1005
                      00707 ;;; /home/sdcc-builder/build/sdcc-build/orig/sdcc/src/pic14/gen.c:2316:resultRemat *{*
                      00708 ;;; /home/sdcc-builder/build/sdcc-build/orig/sdcc/src/pic14/gen.c:3919:genAnd *{*
                      00709 ;; ***  genAnd  3920
                      00710 ;;      694 register type nRegs=2
                      00711 ;;      694 register type nRegs=2
                      00712 ;;      694 register type nRegs=2
                      00713 ;;      line = 3955 result AOP_REG=r0x1051, size=2, left AOP_REG=r0x1051, size=2, right AOP_REG=r0x1055,
                             size=2
                      00714 ;; >>> /home/sdcc-builder/build/sdcc-build/orig/sdcc/src/pic14/gen.c:4137:genAnd
                      00715 ;;      1109 rIdx = r0x1055 
009B   08??           00716         MOVF    r0x1004,W
                      00717 ;; >>> /home/sdcc-builder/build/sdcc-build/orig/sdcc/src/pic14/gen.c:4138:genAnd
                      00718 ;;      1109 rIdx = r0x1051 
009C   05??           00719         ANDWF   r0x1000,F
                      00720 ;; >>> /home/sdcc-builder/build/sdcc-build/orig/sdcc/src/pic14/gen.c:4137:genAnd
                      00721 ;;      1109 rIdx = r0x1056 
009D   3000           00722         MOVLW   0x00
                      00723 ;; >>> /home/sdcc-builder/build/sdcc-build/orig/sdcc/src/pic14/gen.c:4138:genAnd
                      00724 ;;      1109 rIdx = r0x1054 
009E   05??           00725         ANDWF   r0x1003,F
                      00726 ;;; /home/sdcc-builder/build/sdcc-build/orig/sdcc/src/pic14/gen.c:2316:resultRemat *{*
                      00727 ;;; /home/sdcc-builder/build/sdcc-build/orig/sdcc/src/pic14/gen.c:5418:genGenericShift *{*
                      00728 ;; ***  genGenericShift  5421
                      00729 ;;      694 register type nRegs=1
gpasm-1.4.0 #1106 (Oct  6 2014) obj\Debug\gpi   12-6-2023  18:52:19         PAGE 15


LOC    OBJECT CODE    LINE  SOURCE TEXT
  VALUE

                      00730 ;;      694 register type nRegs=2
                      00731 ;;      694 register type nRegs=2
                      00732 ;; ***  mov2w  1381  offset=1
                      00733 ;; >>> /home/sdcc-builder/build/sdcc-build/orig/sdcc/src/pic14/gen.c:1386:mov2w
                      00734 ;;      1109 rIdx = r0x1054 
009F   08??           00735         MOVF    r0x1003,W
                      00736 ;; >>> /home/sdcc-builder/build/sdcc-build/orig/sdcc/src/pic14/gen.c:1393:movwf
                      00737 ;;      1109 rIdx = r0x1056 
00A0   00??           00738         MOVWF   r0x1005
                      00739 ;; ***  mov2w  1381  offset=0
                      00740 ;; >>> /home/sdcc-builder/build/sdcc-build/orig/sdcc/src/pic14/gen.c:1386:mov2w
                      00741 ;;      1109 rIdx = r0x1051 
00A1   08??           00742         MOVF    r0x1000,W
                      00743 ;; >>> /home/sdcc-builder/build/sdcc-build/orig/sdcc/src/pic14/gen.c:1393:movwf
                      00744 ;;      1109 rIdx = r0x1055 
00A2   00??           00745         MOVWF   r0x1004
                      00746 ;; ***  addSign  861
                      00747 ;;; /home/sdcc-builder/build/sdcc-build/orig/sdcc/src/pic14/genarith.c:862:addSign *{*
                      00748 ;; ***  mov2w  1381  offset=0
                      00749 ;; >>> /home/sdcc-builder/build/sdcc-build/orig/sdcc/src/pic14/gen.c:1386:mov2w
                      00750 ;;      1109 rIdx = r0x1052 
00A3   08??           00751         MOVF    r0x1001,W
                      00752 ;; >>> /home/sdcc-builder/build/sdcc-build/orig/sdcc/src/pic14/gen.c:5492:genGenericShift
00A4   3C00           00753         SUBLW   0x00
                      00754 ;; >>> /home/sdcc-builder/build/sdcc-build/orig/sdcc/src/pic14/gen.c:5494:genGenericShift
00A5   1903           00755         BTFSC   STATUS,2
                      00756 ;; >>> /home/sdcc-builder/build/sdcc-build/orig/sdcc/src/pic14/gen.c:5495:genGenericShift
                      00757 ;; ***  popGetLabel  key=25, label offset 82
00A6   2???           00758         GOTO    _00207_DS_
                      00759 ;;; /home/sdcc-builder/build/sdcc-build/orig/sdcc/src/pic14/gen.c:5400:loadSignToC *{*
                      00760 ;; >>> /home/sdcc-builder/build/sdcc-build/orig/sdcc/src/pic14/gen.c:5403:loadSignToC
00A7                  00761 _00206_DS_
00A7   1003           00762         BCF     STATUS,0
                      00763 ;; >>> /home/sdcc-builder/build/sdcc-build/orig/sdcc/src/pic14/gen.c:5404:loadSignToC
00A8   ???? ????      00764         BANKSEL r0x1005
00AA   1B??           00765         BTFSC   r0x1005,7
                      00766 ;; >>> /home/sdcc-builder/build/sdcc-build/orig/sdcc/src/pic14/gen.c:5405:loadSignToC
00AB   1403           00767         BSF     STATUS,0
                      00768 ;;; /home/sdcc-builder/build/sdcc-build/orig/sdcc/src/pic14/gen.c:5369:genMultiAsm *{*
                      00769 ;; ***  genMultiAsm  5370
                      00770 ;; >>> /home/sdcc-builder/build/sdcc-build/orig/sdcc/src/pic14/gen.c:5387:genMultiAsm
                      00771 ;;      1109 rIdx = r0x1056 
00AC   0C??           00772         RRF     r0x1005,F
                      00773 ;; >>> /home/sdcc-builder/build/sdcc-build/orig/sdcc/src/pic14/gen.c:5387:genMultiAsm
                      00774 ;;      1109 rIdx = r0x1055 
00AD   0C??           00775         RRF     r0x1004,F
                      00776 ;; >>> /home/sdcc-builder/build/sdcc-build/orig/sdcc/src/pic14/gen.c:5501:genGenericShift
00AE   3E01           00777         ADDLW   0x01
                      00778 ;; >>> /home/sdcc-builder/build/sdcc-build/orig/sdcc/src/pic14/gen.c:5502:genGenericShift
00AF   1C03           00779         BTFSS   STATUS,0
                      00780 ;; >>> /home/sdcc-builder/build/sdcc-build/orig/sdcc/src/pic14/gen.c:5503:genGenericShift
                      00781 ;; ***  popGetLabel  key=24, label offset 82
00B0   2???           00782         GOTO    _00206_DS_
gpasm-1.4.0 #1106 (Oct  6 2014) obj\Debug\gpi   12-6-2023  18:52:19         PAGE 16


LOC    OBJECT CODE    LINE  SOURCE TEXT
  VALUE

                      00783 ;;; /home/sdcc-builder/build/sdcc-build/orig/sdcc/src/pic14/gen.c:2316:resultRemat *{*
                      00784 ;;; /home/sdcc-builder/build/sdcc-build/orig/sdcc/src/pic14/gen.c:7120:genCast *{*
                      00785 ;; ***  genCast  7121
                      00786 ;;      694 register type nRegs=2
                      00787 ;;      694 register type nRegs=1
                      00788 ;;      line = 7129 result AOP_REG=r0x1053, size=1, left -=-, size=0, right AOP_REG=r0x1055, size=2
                      00789 ;; ***  genCast  7253
                      00790 ;; >>> /home/sdcc-builder/build/sdcc-build/orig/sdcc/src/pic14/gen.c:7277:genCast
                      00791 ;;      1109 rIdx = r0x1055 
00B1                  00792 _00207_DS_
00B1   ???? ????      00793         BANKSEL r0x1004
00B3   08??           00794         MOVF    r0x1004,W
                      00795 ;; >>> /home/sdcc-builder/build/sdcc-build/orig/sdcc/src/pic14/gen.c:7278:genCast
                      00796 ;;      1109 rIdx = r0x1053 
00B4   00??           00797         MOVWF   r0x1002
                      00798 ;;; /home/sdcc-builder/build/sdcc-build/orig/sdcc/src/pic14/gen.c:2316:resultRemat *{*
                      00799 ;;; /home/sdcc-builder/build/sdcc-build/orig/sdcc/src/pic14/gen.c:2778:genGoto *{*
                      00800 ;; >>> /home/sdcc-builder/build/sdcc-build/orig/sdcc/src/pic14/gen.c:2780:genGoto
                      00801 ;; ***  popGetLabel  key=6, label offset 82
                      00802         .line   72; "gpio.c"    break;
00B5   2???           00803         GOTO    _00188_DS_
                      00804 ;;; /home/sdcc-builder/build/sdcc-build/orig/sdcc/src/pic14/gen.c:2316:resultRemat *{*
                      00805 ;;; /home/sdcc-builder/build/sdcc-build/orig/sdcc/src/pic14/gen.c:2760:genLabel *{*
                      00806 ;; ***  genLabel  2763
                      00807 ;;; /home/sdcc-builder/build/sdcc-build/orig/sdcc/src/pic14/gen.c:2316:resultRemat *{*
                      00808 ;;; /home/sdcc-builder/build/sdcc-build/orig/sdcc/src/pic14/gen.c:5418:genGenericShift *{*
                      00809 ;; ***  genGenericShift  5421
                      00810 ;;      694 register type nRegs=1
                      00811 ;;      694 register type nRegs=2
                      00812 ;; ***  mov2w  1381  offset=1
                      00813 ;; >>> /home/sdcc-builder/build/sdcc-build/orig/sdcc/src/pic14/gen.c:1384:mov2w
00B6                  00814 _00186_DS_
                      00815         .line   74; "gpio.c"    ret =  READ_REGISTER_PIN(PORTD, pin);
00B6   3000           00816         MOVLW   0x00
                      00817 ;; >>> /home/sdcc-builder/build/sdcc-build/orig/sdcc/src/pic14/gen.c:1393:movwf
                      00818 ;;      1109 rIdx = r0x1054 
00B7   ???? ????      00819         BANKSEL r0x1003
00B9   00??           00820         MOVWF   r0x1003
                      00821 ;; ***  mov2w  1381  offset=0
                      00822 ;; >>> /home/sdcc-builder/build/sdcc-build/orig/sdcc/src/pic14/gen.c:1384:mov2w
00BA   3001           00823         MOVLW   0x01
                      00824 ;; >>> /home/sdcc-builder/build/sdcc-build/orig/sdcc/src/pic14/gen.c:1393:movwf
                      00825 ;;      1109 rIdx = r0x1051 
00BB   00??           00826         MOVWF   r0x1000
                      00827 ;; ***  addSign  861
                      00828 ;;; /home/sdcc-builder/build/sdcc-build/orig/sdcc/src/pic14/genarith.c:862:addSign *{*
                      00829 ;; ***  mov2w  1381  offset=0
                      00830 ;; >>> /home/sdcc-builder/build/sdcc-build/orig/sdcc/src/pic14/gen.c:1386:mov2w
                      00831 ;;      1109 rIdx = r0x1052 
00BC   08??           00832         MOVF    r0x1001,W
                      00833 ;; >>> /home/sdcc-builder/build/sdcc-build/orig/sdcc/src/pic14/gen.c:5492:genGenericShift
00BD   3C00           00834         SUBLW   0x00
                      00835 ;; >>> /home/sdcc-builder/build/sdcc-build/orig/sdcc/src/pic14/gen.c:5494:genGenericShift
gpasm-1.4.0 #1106 (Oct  6 2014) obj\Debug\gpi   12-6-2023  18:52:19         PAGE 17


LOC    OBJECT CODE    LINE  SOURCE TEXT
  VALUE

00BE   1903           00836         BTFSC   STATUS,2
                      00837 ;; >>> /home/sdcc-builder/build/sdcc-build/orig/sdcc/src/pic14/gen.c:5495:genGenericShift
                      00838 ;; ***  popGetLabel  key=27, label offset 82
00BF   2???           00839         GOTO    _00209_DS_
                      00840 ;;; /home/sdcc-builder/build/sdcc-build/orig/sdcc/src/pic14/gen.c:5369:genMultiAsm *{*
                      00841 ;; ***  genMultiAsm  5370
                      00842 ;; >>> /home/sdcc-builder/build/sdcc-build/orig/sdcc/src/pic14/gen.c:5387:genMultiAsm
                      00843 ;;      1109 rIdx = r0x1051 
00C0                  00844 _00208_DS_
00C0   ???? ????      00845         BANKSEL r0x1000
00C2   0D??           00846         RLF     r0x1000,F
                      00847 ;; >>> /home/sdcc-builder/build/sdcc-build/orig/sdcc/src/pic14/gen.c:5387:genMultiAsm
                      00848 ;;      1109 rIdx = r0x1054 
00C3   0D??           00849         RLF     r0x1003,F
                      00850 ;; >>> /home/sdcc-builder/build/sdcc-build/orig/sdcc/src/pic14/gen.c:5501:genGenericShift
00C4   3E01           00851         ADDLW   0x01
                      00852 ;; >>> /home/sdcc-builder/build/sdcc-build/orig/sdcc/src/pic14/gen.c:5502:genGenericShift
00C5   1C03           00853         BTFSS   STATUS,0
                      00854 ;; >>> /home/sdcc-builder/build/sdcc-build/orig/sdcc/src/pic14/gen.c:5503:genGenericShift
                      00855 ;; ***  popGetLabel  key=26, label offset 82
00C6   2???           00856         GOTO    _00208_DS_
                      00857 ;;; /home/sdcc-builder/build/sdcc-build/orig/sdcc/src/pic14/gen.c:2316:resultRemat *{*
                      00858 ;;; /home/sdcc-builder/build/sdcc-build/orig/sdcc/src/pic14/gen.c:7120:genCast *{*
                      00859 ;; ***  genCast  7121
                      00860 ;; ***  aopForSym 315
                      00861 ;;      327 sym->rname = _PORTD, size = 1
                      00862 ;;      694 register type nRegs=2
                      00863 ;;      line = 7129 result AOP_REG=r0x1055, size=2, left -=-, size=0, right AOP_DIR=_PORTD, size=1
                      00864 ;; >>> /home/sdcc-builder/build/sdcc-build/orig/sdcc/src/pic14/gen.c:7298:genCast
                      00865 ;;      1009
                      00866 ;;      1028  _PORTD   offset=0
00C7                  00867 _00209_DS_
00C7   ???? ????      00868         BANKSEL _PORTD
00C9   08??           00869         MOVF    _PORTD,W
                      00870 ;; >>> /home/sdcc-builder/build/sdcc-build/orig/sdcc/src/pic14/gen.c:7299:genCast
                      00871 ;;      1109 rIdx = r0x1055 
00CA   ???? ????      00872         BANKSEL r0x1004
00CC   00??           00873         MOVWF   r0x1004
                      00874 ;; ***  addSign  861
                      00875 ;;; /home/sdcc-builder/build/sdcc-build/orig/sdcc/src/pic14/genarith.c:862:addSign *{*
                      00876 ;; >>> /home/sdcc-builder/build/sdcc-build/orig/sdcc/src/pic14/genarith.c:881:addSign
                      00877 ;;      1109 rIdx = r0x1056 
00CD   01??           00878         CLRF    r0x1005
                      00879 ;;; /home/sdcc-builder/build/sdcc-build/orig/sdcc/src/pic14/gen.c:2316:resultRemat *{*
                      00880 ;;; /home/sdcc-builder/build/sdcc-build/orig/sdcc/src/pic14/gen.c:3919:genAnd *{*
                      00881 ;; ***  genAnd  3920
                      00882 ;;      694 register type nRegs=2
                      00883 ;;      694 register type nRegs=2
                      00884 ;;      694 register type nRegs=2
                      00885 ;;      line = 3955 result AOP_REG=r0x1051, size=2, left AOP_REG=r0x1051, size=2, right AOP_REG=r0x1055,
                             size=2
                      00886 ;; >>> /home/sdcc-builder/build/sdcc-build/orig/sdcc/src/pic14/gen.c:4137:genAnd
                      00887 ;;      1109 rIdx = r0x1055 
gpasm-1.4.0 #1106 (Oct  6 2014) obj\Debug\gpi   12-6-2023  18:52:19         PAGE 18


LOC    OBJECT CODE    LINE  SOURCE TEXT
  VALUE

00CE   08??           00888         MOVF    r0x1004,W
                      00889 ;; >>> /home/sdcc-builder/build/sdcc-build/orig/sdcc/src/pic14/gen.c:4138:genAnd
                      00890 ;;      1109 rIdx = r0x1051 
00CF   05??           00891         ANDWF   r0x1000,F
                      00892 ;; >>> /home/sdcc-builder/build/sdcc-build/orig/sdcc/src/pic14/gen.c:4137:genAnd
                      00893 ;;      1109 rIdx = r0x1056 
00D0   3000           00894         MOVLW   0x00
                      00895 ;; >>> /home/sdcc-builder/build/sdcc-build/orig/sdcc/src/pic14/gen.c:4138:genAnd
                      00896 ;;      1109 rIdx = r0x1054 
00D1   05??           00897         ANDWF   r0x1003,F
                      00898 ;;; /home/sdcc-builder/build/sdcc-build/orig/sdcc/src/pic14/gen.c:2316:resultRemat *{*
                      00899 ;;; /home/sdcc-builder/build/sdcc-build/orig/sdcc/src/pic14/gen.c:5418:genGenericShift *{*
                      00900 ;; ***  genGenericShift  5421
                      00901 ;;      694 register type nRegs=1
                      00902 ;;      694 register type nRegs=2
                      00903 ;;      694 register type nRegs=2
                      00904 ;; ***  mov2w  1381  offset=1
                      00905 ;; >>> /home/sdcc-builder/build/sdcc-build/orig/sdcc/src/pic14/gen.c:1386:mov2w
                      00906 ;;      1109 rIdx = r0x1054 
00D2   08??           00907         MOVF    r0x1003,W
                      00908 ;; >>> /home/sdcc-builder/build/sdcc-build/orig/sdcc/src/pic14/gen.c:1393:movwf
                      00909 ;;      1109 rIdx = r0x1056 
00D3   00??           00910         MOVWF   r0x1005
                      00911 ;; ***  mov2w  1381  offset=0
                      00912 ;; >>> /home/sdcc-builder/build/sdcc-build/orig/sdcc/src/pic14/gen.c:1386:mov2w
                      00913 ;;      1109 rIdx = r0x1051 
00D4   08??           00914         MOVF    r0x1000,W
                      00915 ;; >>> /home/sdcc-builder/build/sdcc-build/orig/sdcc/src/pic14/gen.c:1393:movwf
                      00916 ;;      1109 rIdx = r0x1055 
00D5   00??           00917         MOVWF   r0x1004
                      00918 ;; ***  addSign  861
                      00919 ;;; /home/sdcc-builder/build/sdcc-build/orig/sdcc/src/pic14/genarith.c:862:addSign *{*
                      00920 ;; ***  mov2w  1381  offset=0
                      00921 ;; >>> /home/sdcc-builder/build/sdcc-build/orig/sdcc/src/pic14/gen.c:1386:mov2w
                      00922 ;;      1109 rIdx = r0x1052 
00D6   08??           00923         MOVF    r0x1001,W
                      00924 ;; >>> /home/sdcc-builder/build/sdcc-build/orig/sdcc/src/pic14/gen.c:5492:genGenericShift
00D7   3C00           00925         SUBLW   0x00
                      00926 ;; >>> /home/sdcc-builder/build/sdcc-build/orig/sdcc/src/pic14/gen.c:5494:genGenericShift
00D8   1903           00927         BTFSC   STATUS,2
                      00928 ;; >>> /home/sdcc-builder/build/sdcc-build/orig/sdcc/src/pic14/gen.c:5495:genGenericShift
                      00929 ;; ***  popGetLabel  key=29, label offset 82
00D9   2???           00930         GOTO    _00211_DS_
                      00931 ;;; /home/sdcc-builder/build/sdcc-build/orig/sdcc/src/pic14/gen.c:5400:loadSignToC *{*
                      00932 ;; >>> /home/sdcc-builder/build/sdcc-build/orig/sdcc/src/pic14/gen.c:5403:loadSignToC
00DA                  00933 _00210_DS_
00DA   1003           00934         BCF     STATUS,0
                      00935 ;; >>> /home/sdcc-builder/build/sdcc-build/orig/sdcc/src/pic14/gen.c:5404:loadSignToC
00DB   ???? ????      00936         BANKSEL r0x1005
00DD   1B??           00937         BTFSC   r0x1005,7
                      00938 ;; >>> /home/sdcc-builder/build/sdcc-build/orig/sdcc/src/pic14/gen.c:5405:loadSignToC
00DE   1403           00939         BSF     STATUS,0
                      00940 ;;; /home/sdcc-builder/build/sdcc-build/orig/sdcc/src/pic14/gen.c:5369:genMultiAsm *{*
gpasm-1.4.0 #1106 (Oct  6 2014) obj\Debug\gpi   12-6-2023  18:52:19         PAGE 19


LOC    OBJECT CODE    LINE  SOURCE TEXT
  VALUE

                      00941 ;; ***  genMultiAsm  5370
                      00942 ;; >>> /home/sdcc-builder/build/sdcc-build/orig/sdcc/src/pic14/gen.c:5387:genMultiAsm
                      00943 ;;      1109 rIdx = r0x1056 
00DF   0C??           00944         RRF     r0x1005,F
                      00945 ;; >>> /home/sdcc-builder/build/sdcc-build/orig/sdcc/src/pic14/gen.c:5387:genMultiAsm
                      00946 ;;      1109 rIdx = r0x1055 
00E0   0C??           00947         RRF     r0x1004,F
                      00948 ;; >>> /home/sdcc-builder/build/sdcc-build/orig/sdcc/src/pic14/gen.c:5501:genGenericShift
00E1   3E01           00949         ADDLW   0x01
                      00950 ;; >>> /home/sdcc-builder/build/sdcc-build/orig/sdcc/src/pic14/gen.c:5502:genGenericShift
00E2   1C03           00951         BTFSS   STATUS,0
                      00952 ;; >>> /home/sdcc-builder/build/sdcc-build/orig/sdcc/src/pic14/gen.c:5503:genGenericShift
                      00953 ;; ***  popGetLabel  key=28, label offset 82
00E3   2???           00954         GOTO    _00210_DS_
                      00955 ;;; /home/sdcc-builder/build/sdcc-build/orig/sdcc/src/pic14/gen.c:2316:resultRemat *{*
                      00956 ;;; /home/sdcc-builder/build/sdcc-build/orig/sdcc/src/pic14/gen.c:7120:genCast *{*
                      00957 ;; ***  genCast  7121
                      00958 ;;      694 register type nRegs=2
                      00959 ;;      694 register type nRegs=1
                      00960 ;;      line = 7129 result AOP_REG=r0x1053, size=1, left -=-, size=0, right AOP_REG=r0x1055, size=2
                      00961 ;; ***  genCast  7253
                      00962 ;; >>> /home/sdcc-builder/build/sdcc-build/orig/sdcc/src/pic14/gen.c:7277:genCast
                      00963 ;;      1109 rIdx = r0x1055 
00E4                  00964 _00211_DS_
00E4   ???? ????      00965         BANKSEL r0x1004
00E6   08??           00966         MOVF    r0x1004,W
                      00967 ;; >>> /home/sdcc-builder/build/sdcc-build/orig/sdcc/src/pic14/gen.c:7278:genCast
                      00968 ;;      1109 rIdx = r0x1053 
00E7   00??           00969         MOVWF   r0x1002
                      00970 ;;; /home/sdcc-builder/build/sdcc-build/orig/sdcc/src/pic14/gen.c:2316:resultRemat *{*
                      00971 ;;; /home/sdcc-builder/build/sdcc-build/orig/sdcc/src/pic14/gen.c:2778:genGoto *{*
                      00972 ;; >>> /home/sdcc-builder/build/sdcc-build/orig/sdcc/src/pic14/gen.c:2780:genGoto
                      00973 ;; ***  popGetLabel  key=6, label offset 82
                      00974         .line   75; "gpio.c"    break;
00E8   2???           00975         GOTO    _00188_DS_
                      00976 ;;; /home/sdcc-builder/build/sdcc-build/orig/sdcc/src/pic14/gen.c:2316:resultRemat *{*
                      00977 ;;; /home/sdcc-builder/build/sdcc-build/orig/sdcc/src/pic14/gen.c:2760:genLabel *{*
                      00978 ;; ***  genLabel  2763
                      00979 ;;; /home/sdcc-builder/build/sdcc-build/orig/sdcc/src/pic14/gen.c:2316:resultRemat *{*
                      00980 ;;; /home/sdcc-builder/build/sdcc-build/orig/sdcc/src/pic14/gen.c:5418:genGenericShift *{*
                      00981 ;; ***  genGenericShift  5421
                      00982 ;;      694 register type nRegs=1
                      00983 ;;      694 register type nRegs=2
                      00984 ;; ***  mov2w  1381  offset=1
                      00985 ;; >>> /home/sdcc-builder/build/sdcc-build/orig/sdcc/src/pic14/gen.c:1384:mov2w
00E9                  00986 _00187_DS_
                      00987         .line   77; "gpio.c"    ret =  READ_REGISTER_PIN(PORTE, pin);
00E9   3000           00988         MOVLW   0x00
                      00989 ;; >>> /home/sdcc-builder/build/sdcc-build/orig/sdcc/src/pic14/gen.c:1393:movwf
                      00990 ;;      1109 rIdx = r0x1054 
00EA   ???? ????      00991         BANKSEL r0x1003
00EC   00??           00992         MOVWF   r0x1003
                      00993 ;; ***  mov2w  1381  offset=0
gpasm-1.4.0 #1106 (Oct  6 2014) obj\Debug\gpi   12-6-2023  18:52:19         PAGE 20


LOC    OBJECT CODE    LINE  SOURCE TEXT
  VALUE

                      00994 ;; >>> /home/sdcc-builder/build/sdcc-build/orig/sdcc/src/pic14/gen.c:1384:mov2w
00ED   3001           00995         MOVLW   0x01
                      00996 ;; >>> /home/sdcc-builder/build/sdcc-build/orig/sdcc/src/pic14/gen.c:1393:movwf
                      00997 ;;      1109 rIdx = r0x1051 
00EE   00??           00998         MOVWF   r0x1000
                      00999 ;; ***  addSign  861
                      01000 ;;; /home/sdcc-builder/build/sdcc-build/orig/sdcc/src/pic14/genarith.c:862:addSign *{*
                      01001 ;; ***  mov2w  1381  offset=0
                      01002 ;; >>> /home/sdcc-builder/build/sdcc-build/orig/sdcc/src/pic14/gen.c:1386:mov2w
                      01003 ;;      1109 rIdx = r0x1052 
00EF   08??           01004         MOVF    r0x1001,W
                      01005 ;; >>> /home/sdcc-builder/build/sdcc-build/orig/sdcc/src/pic14/gen.c:5492:genGenericShift
00F0   3C00           01006         SUBLW   0x00
                      01007 ;; >>> /home/sdcc-builder/build/sdcc-build/orig/sdcc/src/pic14/gen.c:5494:genGenericShift
00F1   1903           01008         BTFSC   STATUS,2
                      01009 ;; >>> /home/sdcc-builder/build/sdcc-build/orig/sdcc/src/pic14/gen.c:5495:genGenericShift
                      01010 ;; ***  popGetLabel  key=31, label offset 82
00F2   2???           01011         GOTO    _00213_DS_
                      01012 ;;; /home/sdcc-builder/build/sdcc-build/orig/sdcc/src/pic14/gen.c:5369:genMultiAsm *{*
                      01013 ;; ***  genMultiAsm  5370
                      01014 ;; >>> /home/sdcc-builder/build/sdcc-build/orig/sdcc/src/pic14/gen.c:5387:genMultiAsm
                      01015 ;;      1109 rIdx = r0x1051 
00F3                  01016 _00212_DS_
00F3   ???? ????      01017         BANKSEL r0x1000
00F5   0D??           01018         RLF     r0x1000,F
                      01019 ;; >>> /home/sdcc-builder/build/sdcc-build/orig/sdcc/src/pic14/gen.c:5387:genMultiAsm
                      01020 ;;      1109 rIdx = r0x1054 
00F6   0D??           01021         RLF     r0x1003,F
                      01022 ;; >>> /home/sdcc-builder/build/sdcc-build/orig/sdcc/src/pic14/gen.c:5501:genGenericShift
00F7   3E01           01023         ADDLW   0x01
                      01024 ;; >>> /home/sdcc-builder/build/sdcc-build/orig/sdcc/src/pic14/gen.c:5502:genGenericShift
00F8   1C03           01025         BTFSS   STATUS,0
                      01026 ;; >>> /home/sdcc-builder/build/sdcc-build/orig/sdcc/src/pic14/gen.c:5503:genGenericShift
                      01027 ;; ***  popGetLabel  key=30, label offset 82
00F9   2???           01028         GOTO    _00212_DS_
                      01029 ;;; /home/sdcc-builder/build/sdcc-build/orig/sdcc/src/pic14/gen.c:2316:resultRemat *{*
                      01030 ;;; /home/sdcc-builder/build/sdcc-build/orig/sdcc/src/pic14/gen.c:7120:genCast *{*
                      01031 ;; ***  genCast  7121
                      01032 ;; ***  aopForSym 315
                      01033 ;;      327 sym->rname = _PORTE, size = 1
                      01034 ;;      694 register type nRegs=2
                      01035 ;;      line = 7129 result AOP_REG=r0x1055, size=2, left -=-, size=0, right AOP_DIR=_PORTE, size=1
                      01036 ;; >>> /home/sdcc-builder/build/sdcc-build/orig/sdcc/src/pic14/gen.c:7298:genCast
                      01037 ;;      1009
                      01038 ;;      1028  _PORTE   offset=0
00FA                  01039 _00213_DS_
00FA   ???? ????      01040         BANKSEL _PORTE
00FC   08??           01041         MOVF    _PORTE,W
                      01042 ;; >>> /home/sdcc-builder/build/sdcc-build/orig/sdcc/src/pic14/gen.c:7299:genCast
                      01043 ;;      1109 rIdx = r0x1055 
00FD   ???? ????      01044         BANKSEL r0x1004
00FF   00??           01045         MOVWF   r0x1004
                      01046 ;; ***  addSign  861
gpasm-1.4.0 #1106 (Oct  6 2014) obj\Debug\gpi   12-6-2023  18:52:19         PAGE 21


LOC    OBJECT CODE    LINE  SOURCE TEXT
  VALUE

                      01047 ;;; /home/sdcc-builder/build/sdcc-build/orig/sdcc/src/pic14/genarith.c:862:addSign *{*
                      01048 ;; >>> /home/sdcc-builder/build/sdcc-build/orig/sdcc/src/pic14/genarith.c:881:addSign
                      01049 ;;      1109 rIdx = r0x1056 
0100   01??           01050         CLRF    r0x1005
                      01051 ;;; /home/sdcc-builder/build/sdcc-build/orig/sdcc/src/pic14/gen.c:2316:resultRemat *{*
                      01052 ;;; /home/sdcc-builder/build/sdcc-build/orig/sdcc/src/pic14/gen.c:3919:genAnd *{*
                      01053 ;; ***  genAnd  3920
                      01054 ;;      694 register type nRegs=2
                      01055 ;;      694 register type nRegs=2
                      01056 ;;      694 register type nRegs=2
                      01057 ;;      line = 3955 result AOP_REG=r0x1051, size=2, left AOP_REG=r0x1051, size=2, right AOP_REG=r0x1055,
                             size=2
                      01058 ;; >>> /home/sdcc-builder/build/sdcc-build/orig/sdcc/src/pic14/gen.c:4137:genAnd
                      01059 ;;      1109 rIdx = r0x1055 
0101   08??           01060         MOVF    r0x1004,W
                      01061 ;; >>> /home/sdcc-builder/build/sdcc-build/orig/sdcc/src/pic14/gen.c:4138:genAnd
                      01062 ;;      1109 rIdx = r0x1051 
0102   05??           01063         ANDWF   r0x1000,F
                      01064 ;; >>> /home/sdcc-builder/build/sdcc-build/orig/sdcc/src/pic14/gen.c:4137:genAnd
                      01065 ;;      1109 rIdx = r0x1056 
0103   3000           01066         MOVLW   0x00
                      01067 ;; >>> /home/sdcc-builder/build/sdcc-build/orig/sdcc/src/pic14/gen.c:4138:genAnd
                      01068 ;;      1109 rIdx = r0x1054 
0104   05??           01069         ANDWF   r0x1003,F
                      01070 ;;; /home/sdcc-builder/build/sdcc-build/orig/sdcc/src/pic14/gen.c:2316:resultRemat *{*
                      01071 ;;; /home/sdcc-builder/build/sdcc-build/orig/sdcc/src/pic14/gen.c:5418:genGenericShift *{*
                      01072 ;; ***  genGenericShift  5421
                      01073 ;;      694 register type nRegs=1
                      01074 ;;      694 register type nRegs=2
                      01075 ;;      694 register type nRegs=2
                      01076 ;; ***  mov2w  1381  offset=1
                      01077 ;; >>> /home/sdcc-builder/build/sdcc-build/orig/sdcc/src/pic14/gen.c:1386:mov2w
                      01078 ;;      1109 rIdx = r0x1054 
0105   08??           01079         MOVF    r0x1003,W
                      01080 ;; >>> /home/sdcc-builder/build/sdcc-build/orig/sdcc/src/pic14/gen.c:1393:movwf
                      01081 ;;      1109 rIdx = r0x1056 
0106   00??           01082         MOVWF   r0x1005
                      01083 ;; ***  mov2w  1381  offset=0
                      01084 ;; >>> /home/sdcc-builder/build/sdcc-build/orig/sdcc/src/pic14/gen.c:1386:mov2w
                      01085 ;;      1109 rIdx = r0x1051 
0107   08??           01086         MOVF    r0x1000,W
                      01087 ;; >>> /home/sdcc-builder/build/sdcc-build/orig/sdcc/src/pic14/gen.c:1393:movwf
                      01088 ;;      1109 rIdx = r0x1055 
0108   00??           01089         MOVWF   r0x1004
                      01090 ;; ***  addSign  861
                      01091 ;;; /home/sdcc-builder/build/sdcc-build/orig/sdcc/src/pic14/genarith.c:862:addSign *{*
                      01092 ;; ***  mov2w  1381  offset=0
                      01093 ;; >>> /home/sdcc-builder/build/sdcc-build/orig/sdcc/src/pic14/gen.c:1386:mov2w
                      01094 ;;      1109 rIdx = r0x1052 
0109   08??           01095         MOVF    r0x1001,W
                      01096 ;; >>> /home/sdcc-builder/build/sdcc-build/orig/sdcc/src/pic14/gen.c:5492:genGenericShift
010A   3C00           01097         SUBLW   0x00
                      01098 ;; >>> /home/sdcc-builder/build/sdcc-build/orig/sdcc/src/pic14/gen.c:5494:genGenericShift
gpasm-1.4.0 #1106 (Oct  6 2014) obj\Debug\gpi   12-6-2023  18:52:19         PAGE 22


LOC    OBJECT CODE    LINE  SOURCE TEXT
  VALUE

010B   1903           01099         BTFSC   STATUS,2
                      01100 ;; >>> /home/sdcc-builder/build/sdcc-build/orig/sdcc/src/pic14/gen.c:5495:genGenericShift
                      01101 ;; ***  popGetLabel  key=33, label offset 82
010C   2???           01102         GOTO    _00215_DS_
                      01103 ;;; /home/sdcc-builder/build/sdcc-build/orig/sdcc/src/pic14/gen.c:5400:loadSignToC *{*
                      01104 ;; >>> /home/sdcc-builder/build/sdcc-build/orig/sdcc/src/pic14/gen.c:5403:loadSignToC
010D                  01105 _00214_DS_
010D   1003           01106         BCF     STATUS,0
                      01107 ;; >>> /home/sdcc-builder/build/sdcc-build/orig/sdcc/src/pic14/gen.c:5404:loadSignToC
010E   ???? ????      01108         BANKSEL r0x1005
0110   1B??           01109         BTFSC   r0x1005,7
                      01110 ;; >>> /home/sdcc-builder/build/sdcc-build/orig/sdcc/src/pic14/gen.c:5405:loadSignToC
0111   1403           01111         BSF     STATUS,0
                      01112 ;;; /home/sdcc-builder/build/sdcc-build/orig/sdcc/src/pic14/gen.c:5369:genMultiAsm *{*
                      01113 ;; ***  genMultiAsm  5370
                      01114 ;; >>> /home/sdcc-builder/build/sdcc-build/orig/sdcc/src/pic14/gen.c:5387:genMultiAsm
                      01115 ;;      1109 rIdx = r0x1056 
0112   0C??           01116         RRF     r0x1005,F
                      01117 ;; >>> /home/sdcc-builder/build/sdcc-build/orig/sdcc/src/pic14/gen.c:5387:genMultiAsm
                      01118 ;;      1109 rIdx = r0x1055 
0113   0C??           01119         RRF     r0x1004,F
                      01120 ;; >>> /home/sdcc-builder/build/sdcc-build/orig/sdcc/src/pic14/gen.c:5501:genGenericShift
0114   3E01           01121         ADDLW   0x01
                      01122 ;; >>> /home/sdcc-builder/build/sdcc-build/orig/sdcc/src/pic14/gen.c:5502:genGenericShift
0115   1C03           01123         BTFSS   STATUS,0
                      01124 ;; >>> /home/sdcc-builder/build/sdcc-build/orig/sdcc/src/pic14/gen.c:5503:genGenericShift
                      01125 ;; ***  popGetLabel  key=32, label offset 82
0116   2???           01126         GOTO    _00214_DS_
                      01127 ;;; /home/sdcc-builder/build/sdcc-build/orig/sdcc/src/pic14/gen.c:2316:resultRemat *{*
                      01128 ;;; /home/sdcc-builder/build/sdcc-build/orig/sdcc/src/pic14/gen.c:7120:genCast *{*
                      01129 ;; ***  genCast  7121
                      01130 ;;      694 register type nRegs=2
                      01131 ;;      694 register type nRegs=1
                      01132 ;;      line = 7129 result AOP_REG=r0x1053, size=1, left -=-, size=0, right AOP_REG=r0x1055, size=2
                      01133 ;; ***  genCast  7253
                      01134 ;; >>> /home/sdcc-builder/build/sdcc-build/orig/sdcc/src/pic14/gen.c:7277:genCast
                      01135 ;;      1109 rIdx = r0x1055 
0117                  01136 _00215_DS_
0117   ???? ????      01137         BANKSEL r0x1004
0119   08??           01138         MOVF    r0x1004,W
                      01139 ;; >>> /home/sdcc-builder/build/sdcc-build/orig/sdcc/src/pic14/gen.c:7278:genCast
                      01140 ;;      1109 rIdx = r0x1053 
011A   00??           01141         MOVWF   r0x1002
                      01142 ;;; /home/sdcc-builder/build/sdcc-build/orig/sdcc/src/pic14/gen.c:2316:resultRemat *{*
                      01143 ;;; /home/sdcc-builder/build/sdcc-build/orig/sdcc/src/pic14/gen.c:2760:genLabel *{*
                      01144 ;; ***  genLabel  2763
                      01145 ;;; /home/sdcc-builder/build/sdcc-build/orig/sdcc/src/pic14/gen.c:2316:resultRemat *{*
                      01146 ;;; /home/sdcc-builder/build/sdcc-build/orig/sdcc/src/pic14/gen.c:2683:genRet *{*
                      01147 ;; ***  genRet  2685
                      01148 ;;      694 register type nRegs=1
                      01149 ;;; /home/sdcc-builder/build/sdcc-build/orig/sdcc/src/pic14/gen.c:1343:mov2w_op *{*
                      01150 ;; ***  mov2w  1381  offset=0
                      01151 ;; >>> /home/sdcc-builder/build/sdcc-build/orig/sdcc/src/pic14/gen.c:1386:mov2w
gpasm-1.4.0 #1106 (Oct  6 2014) obj\Debug\gpi   12-6-2023  18:52:19         PAGE 23


LOC    OBJECT CODE    LINE  SOURCE TEXT
  VALUE

                      01152 ;;      1109 rIdx = r0x1053 
011B                  01153 _00188_DS_
                      01154         .line   81; "gpio.c"    return ret;
011B   ???? ????      01155         BANKSEL r0x1002
011D   08??           01156         MOVF    r0x1002,W
                      01157 ;;; /home/sdcc-builder/build/sdcc-build/orig/sdcc/src/pic14/gen.c:2316:resultRemat *{*
                      01158 ;;; /home/sdcc-builder/build/sdcc-build/orig/sdcc/src/pic14/gen.c:2760:genLabel *{*
                      01159 ;; ***  genLabel  2763
                      01160 ;;; /home/sdcc-builder/build/sdcc-build/orig/sdcc/src/pic14/gen.c:2316:resultRemat *{*
                      01161 ;;; /home/sdcc-builder/build/sdcc-build/orig/sdcc/src/pic14/gen.c:2528:genEndFunction *{*
                      01162 ;; ***  genEndFunction  2530
011E   0008           01163         RETURN  
                      01164 ; exit point of _GPIO_GetPortPinState
                      01165 
                      01166 ;***
                      01167 ;  pBlock Stats: dbName = C
                      01168 ;***
                      01169 ;entry:  _GPIO_SetPortPinState  ;Function start
                      01170 ; 2 exit points
                      01171 ;has an exit
                      01172 ;6 compiler assigned registers:
                      01173 ;   r0x1006
                      01174 ;   STK00
                      01175 ;   r0x1007
                      01176 ;   STK01
                      01177 ;   r0x1008
                      01178 ;   r0x1009
                      01179 ;; Starting pCode block
                      01180 ;;; /home/sdcc-builder/build/sdcc-build/orig/sdcc/src/pic14/gen.c:2316:resultRemat *{*
                      01181 ;;; /home/sdcc-builder/build/sdcc-build/orig/sdcc/src/pic14/gen.c:2760:genLabel *{*
                      01182 ;; ***  genLabel  2763
                      01183 ;;; /home/sdcc-builder/build/sdcc-build/orig/sdcc/src/pic14/gen.c:2316:resultRemat *{*
                      01184 ;;; /home/sdcc-builder/build/sdcc-build/orig/sdcc/src/pic14/gen.c:2340:genFunction *{*
                      01185 ;; ***  genFunction  2342 curr label offset=41previous max_key=0 
011F                  01186 _GPIO_SetPortPinState   ;Function start
                      01187 ; 2 exit points
                      01188 ;;; /home/sdcc-builder/build/sdcc-build/orig/sdcc/src/pic14/gen.c:2316:resultRemat *{*
                      01189 ;;; /home/sdcc-builder/build/sdcc-build/orig/sdcc/src/pic14/gen.c:7358:genReceive *{*
                      01190 ;; ***  genReceive  7359
                      01191 ;;      694 register type nRegs=1
                      01192 ;;; /home/sdcc-builder/build/sdcc-build/orig/sdcc/src/pic14/gen.c:1907:assignResultValue *{*
                      01193 ;; ***  assignResultValue  1909
                      01194 ;;      line = 1911 result -=-, size=0, left AOP_REG=r0x104C, size=1, right -=-, size=0
                      01195 ;; >>> /home/sdcc-builder/build/sdcc-build/orig/sdcc/src/pic14/gen.c:1393:movwf
                      01196 ;;      1109 rIdx = r0x104C 
                      01197         .line   36; "gpio.c"    void GPIO_SetPortPinState(tPort port, unsigned char pin, unsigned char s
                            tate)
011F   ???? ????      01198         BANKSEL r0x1006
0121   00??           01199         MOVWF   r0x1006
                      01200 ;;; /home/sdcc-builder/build/sdcc-build/orig/sdcc/src/pic14/gen.c:2316:resultRemat *{*
                      01201 ;;; /home/sdcc-builder/build/sdcc-build/orig/sdcc/src/pic14/gen.c:7358:genReceive *{*
                      01202 ;; ***  genReceive  7359
                      01203 ;;      694 register type nRegs=1
gpasm-1.4.0 #1106 (Oct  6 2014) obj\Debug\gpi   12-6-2023  18:52:19         PAGE 24


LOC    OBJECT CODE    LINE  SOURCE TEXT
  VALUE

                      01204 ;;; /home/sdcc-builder/build/sdcc-build/orig/sdcc/src/pic14/gen.c:1907:assignResultValue *{*
                      01205 ;; ***  assignResultValue  1909
                      01206 ;;      line = 1911 result -=-, size=0, left AOP_REG=r0x104D, size=1, right -=-, size=0
                      01207 ;; >>> /home/sdcc-builder/build/sdcc-build/orig/sdcc/src/pic14/gen.c:1423:get_returnvalue
                      01208 ;; ***  popRegFromIdx,1042  , rIdx=0x7f
0122   08??           01209         MOVF    STK00,W
                      01210 ;; >>> /home/sdcc-builder/build/sdcc-build/orig/sdcc/src/pic14/gen.c:1393:movwf
                      01211 ;;      1109 rIdx = r0x104D 
0123   00??           01212         MOVWF   r0x1007
                      01213 ;;; /home/sdcc-builder/build/sdcc-build/orig/sdcc/src/pic14/gen.c:2316:resultRemat *{*
                      01214 ;;; /home/sdcc-builder/build/sdcc-build/orig/sdcc/src/pic14/gen.c:7358:genReceive *{*
                      01215 ;; ***  genReceive  7359
                      01216 ;;      694 register type nRegs=1
                      01217 ;;; /home/sdcc-builder/build/sdcc-build/orig/sdcc/src/pic14/gen.c:1907:assignResultValue *{*
                      01218 ;; ***  assignResultValue  1909
                      01219 ;;      line = 1911 result -=-, size=0, left AOP_REG=r0x104E, size=1, right -=-, size=0
                      01220 ;; >>> /home/sdcc-builder/build/sdcc-build/orig/sdcc/src/pic14/gen.c:1423:get_returnvalue
                      01221 ;; ***  popRegFromIdx,1042  , rIdx=0x7e
0124   08??           01222         MOVF    STK01,W
                      01223 ;; >>> /home/sdcc-builder/build/sdcc-build/orig/sdcc/src/pic14/gen.c:1393:movwf
                      01224 ;;      1109 rIdx = r0x104E 
0125   00??           01225         MOVWF   r0x1008
                      01226 ;;; /home/sdcc-builder/build/sdcc-build/orig/sdcc/src/pic14/gen.c:2316:resultRemat *{*
                      01227 ;;; /home/sdcc-builder/build/sdcc-build/orig/sdcc/src/pic14/gen.c:3547:genCmpGt *{*
                      01228 ;; ***  genCmpGt  3548
                      01229 ;;      694 register type nRegs=1
                      01230 ;;; /home/sdcc-builder/build/sdcc-build/orig/sdcc/src/pic14/gen.c:3294:genCmp *{*
                      01231 ;;swapping arguments (AOP_TYPEs 1/2)
                      01232 ;;unsigned compare: left >= lit(0x5=5), size=1
                      01233 ;; >>> /home/sdcc-builder/build/sdcc-build/orig/sdcc/src/pic14/gen.c:3265:pic14_mov2w_regOrLit
                      01234         .line   38; "gpio.c"    switch(port)
0126   3005           01235         MOVLW   0x05
                      01236 ;; >>> /home/sdcc-builder/build/sdcc-build/orig/sdcc/src/pic14/gen.c:3432:genCmp
                      01237 ;;      1109 rIdx = r0x104C 
0127   02??           01238         SUBWF   r0x1006,W
                      01239 ;;; /home/sdcc-builder/build/sdcc-build/orig/sdcc/src/pic14/gen.c:3237:genSkipc *{*
                      01240 ;; >>> /home/sdcc-builder/build/sdcc-build/orig/sdcc/src/pic14/gen.c:3242:genSkipc
0128   1803           01241         BTFSC   STATUS,0
                      01242 ;; >>> /home/sdcc-builder/build/sdcc-build/orig/sdcc/src/pic14/gen.c:3246:genSkipc
                      01243 ;; ***  popGetLabel  key=7, label offset 45
0129   2???           01244         GOTO    _00152_DS_
                      01245 ;;genSkipc:3247: created from rifx:027A5DF4
                      01246 ;;; /home/sdcc-builder/build/sdcc-build/orig/sdcc/src/pic14/gen.c:2316:resultRemat *{*
                      01247 ;;; /home/sdcc-builder/build/sdcc-build/orig/sdcc/src/pic14/gen.c:2316:resultRemat *{*
                      01248 ;;; /home/sdcc-builder/build/sdcc-build/orig/sdcc/src/pic14/gen.c:7071:genJumpTab *{*
                      01249 ;; ***  genJumpTab  7072
                      01250 ;;      694 register type nRegs=1
                      01251 ;; >>> /home/sdcc-builder/build/sdcc-build/orig/sdcc/src/pic14/gen.c:7087:genJumpTab
                      01252 ;; ***  popGetLabel  key=13, label offset 45
012A   30??           01253         MOVLW   HIGH(_00158_DS_)
                      01254 ;; >>> /home/sdcc-builder/build/sdcc-build/orig/sdcc/src/pic14/gen.c:7088:genJumpTab
012B   1283 1303      01255         BANKSEL PCLATH
012D   008A           01256         MOVWF   PCLATH
gpasm-1.4.0 #1106 (Oct  6 2014) obj\Debug\gpi   12-6-2023  18:52:19         PAGE 25


LOC    OBJECT CODE    LINE  SOURCE TEXT
  VALUE

                      01257 ;; >>> /home/sdcc-builder/build/sdcc-build/orig/sdcc/src/pic14/gen.c:7089:genJumpTab
                      01258 ;; ***  popGetLabel  key=13, label offset 45
012E   30??           01259         MOVLW   _00158_DS_
                      01260 ;; >>> /home/sdcc-builder/build/sdcc-build/orig/sdcc/src/pic14/gen.c:7090:genJumpTab
                      01261 ;;      1109 rIdx = r0x104C 
012F   ???? ????      01262         BANKSEL r0x1006
0131   07??           01263         ADDWF   r0x1006,W
                      01264 ;; >>> /home/sdcc-builder/build/sdcc-build/orig/sdcc/src/pic14/gen.c:7091:genJumpTab
0132   1C03           01265         BTFSS   STATUS,0
0133   2???           01266         GOTO    _00002_DS_
                      01267 ;; >>> /home/sdcc-builder/build/sdcc-build/orig/sdcc/src/pic14/gen.c:7092:genJumpTab
0134   1283 1303      01268         BANKSEL PCLATH
0136   0A8A           01269         INCF    PCLATH,F
                      01270 ;; >>> /home/sdcc-builder/build/sdcc-build/orig/sdcc/src/pic14/gen.c:7093:genJumpTab
0137                  01271 _00002_DS_
0137   0082           01272         MOVWF   PCL
                      01273 ;; >>> /home/sdcc-builder/build/sdcc-build/orig/sdcc/src/pic14/gen.c:7102:genJumpTab
                      01274 ;; ***  popGetLabel  key=1, label offset 45
0138                  01275 _00158_DS_
0138   2???           01276         GOTO    _00146_DS_
                      01277 ;; >>> /home/sdcc-builder/build/sdcc-build/orig/sdcc/src/pic14/gen.c:7102:genJumpTab
                      01278 ;; ***  popGetLabel  key=2, label offset 45
0139   2???           01279         GOTO    _00147_DS_
                      01280 ;; >>> /home/sdcc-builder/build/sdcc-build/orig/sdcc/src/pic14/gen.c:7102:genJumpTab
                      01281 ;; ***  popGetLabel  key=3, label offset 45
013A   2???           01282         GOTO    _00148_DS_
                      01283 ;; >>> /home/sdcc-builder/build/sdcc-build/orig/sdcc/src/pic14/gen.c:7102:genJumpTab
                      01284 ;; ***  popGetLabel  key=4, label offset 45
013B   2???           01285         GOTO    _00149_DS_
                      01286 ;; >>> /home/sdcc-builder/build/sdcc-build/orig/sdcc/src/pic14/gen.c:7102:genJumpTab
                      01287 ;; ***  popGetLabel  key=5, label offset 45
013C   2???           01288         GOTO    _00150_DS_
                      01289 ;;; /home/sdcc-builder/build/sdcc-build/orig/sdcc/src/pic14/gen.c:2316:resultRemat *{*
                      01290 ;;; /home/sdcc-builder/build/sdcc-build/orig/sdcc/src/pic14/gen.c:2760:genLabel *{*
                      01291 ;; ***  genLabel  2763
                      01292 ;;; /home/sdcc-builder/build/sdcc-build/orig/sdcc/src/pic14/gen.c:2316:resultRemat *{*
                      01293 ;;; /home/sdcc-builder/build/sdcc-build/orig/sdcc/src/pic14/gen.c:5418:genGenericShift *{*
                      01294 ;; ***  genGenericShift  5421
                      01295 ;;      694 register type nRegs=1
                      01296 ;;      694 register type nRegs=1
                      01297 ;; ***  mov2w  1381  offset=0
                      01298 ;; >>> /home/sdcc-builder/build/sdcc-build/orig/sdcc/src/pic14/gen.c:1384:mov2w
013D                  01299 _00146_DS_
                      01300         .line   41; "gpio.c"    SET_REGISTER_PIN(PORTA, pin, state);
013D   3001           01301         MOVLW   0x01
                      01302 ;; >>> /home/sdcc-builder/build/sdcc-build/orig/sdcc/src/pic14/gen.c:1393:movwf
                      01303 ;;      1109 rIdx = r0x104C 
013E   ???? ????      01304         BANKSEL r0x1006
0140   00??           01305         MOVWF   r0x1006
                      01306 ;; ***  addSign  861
                      01307 ;;; /home/sdcc-builder/build/sdcc-build/orig/sdcc/src/pic14/genarith.c:862:addSign *{*
                      01308 ;; ***  mov2w  1381  offset=0
                      01309 ;; >>> /home/sdcc-builder/build/sdcc-build/orig/sdcc/src/pic14/gen.c:1386:mov2w
gpasm-1.4.0 #1106 (Oct  6 2014) obj\Debug\gpi   12-6-2023  18:52:19         PAGE 26


LOC    OBJECT CODE    LINE  SOURCE TEXT
  VALUE

                      01310 ;;      1109 rIdx = r0x104D 
0141   08??           01311         MOVF    r0x1007,W
                      01312 ;; >>> /home/sdcc-builder/build/sdcc-build/orig/sdcc/src/pic14/gen.c:5492:genGenericShift
0142   3C00           01313         SUBLW   0x00
                      01314 ;; >>> /home/sdcc-builder/build/sdcc-build/orig/sdcc/src/pic14/gen.c:5494:genGenericShift
0143   1903           01315         BTFSC   STATUS,2
                      01316 ;; >>> /home/sdcc-builder/build/sdcc-build/orig/sdcc/src/pic14/gen.c:5495:genGenericShift
                      01317 ;; ***  popGetLabel  key=15, label offset 45
0144   2???           01318         GOTO    _00160_DS_
                      01319 ;;; /home/sdcc-builder/build/sdcc-build/orig/sdcc/src/pic14/gen.c:5369:genMultiAsm *{*
                      01320 ;; ***  genMultiAsm  5370
                      01321 ;; >>> /home/sdcc-builder/build/sdcc-build/orig/sdcc/src/pic14/gen.c:5387:genMultiAsm
                      01322 ;;      1109 rIdx = r0x104C 
0145                  01323 _00159_DS_
0145   ???? ????      01324         BANKSEL r0x1006
0147   0D??           01325         RLF     r0x1006,F
                      01326 ;; >>> /home/sdcc-builder/build/sdcc-build/orig/sdcc/src/pic14/gen.c:5501:genGenericShift
0148   3E01           01327         ADDLW   0x01
                      01328 ;; >>> /home/sdcc-builder/build/sdcc-build/orig/sdcc/src/pic14/gen.c:5502:genGenericShift
0149   1C03           01329         BTFSS   STATUS,0
                      01330 ;; >>> /home/sdcc-builder/build/sdcc-build/orig/sdcc/src/pic14/gen.c:5503:genGenericShift
                      01331 ;; ***  popGetLabel  key=14, label offset 45
014A   2???           01332         GOTO    _00159_DS_
                      01333 ;;; /home/sdcc-builder/build/sdcc-build/orig/sdcc/src/pic14/gen.c:2316:resultRemat *{*
                      01334 ;;; /home/sdcc-builder/build/sdcc-build/orig/sdcc/src/pic14/gen.c:1609:genCpl *{*
                      01335 ;; ***  genCpl  1611
                      01336 ;;      694 register type nRegs=1
                      01337 ;;      694 register type nRegs=1
                      01338 ;; >>> /home/sdcc-builder/build/sdcc-build/orig/sdcc/src/pic14/gen.c:1631:genCpl
                      01339 ;;      1109 rIdx = r0x104C 
014B                  01340 _00160_DS_
014B   ???? ????      01341         BANKSEL r0x1006
014D   09??           01342         COMF    r0x1006,F
014E   ???? ????      01343         BANKSEL _PORTA
0150   08??           01344         MOVF    _PORTA,W
                      01345 ;; >>> /home/sdcc-builder/build/sdcc-build/orig/sdcc/src/pic14/gen.c:4138:genAnd
                      01346 ;;      1109 rIdx = r0x104C 
0151   ???? ????      01347         BANKSEL r0x1006
0153   05??           01348         ANDWF   r0x1006,F
                      01349 ;;; /home/sdcc-builder/build/sdcc-build/orig/sdcc/src/pic14/gen.c:2316:resultRemat *{*
                      01350 ;;; /home/sdcc-builder/build/sdcc-build/orig/sdcc/src/pic14/gen.c:5418:genGenericShift *{*
                      01351 ;; ***  genGenericShift  5421
                      01352 ;;      694 register type nRegs=1
                      01353 ;;      694 register type nRegs=1
                      01354 ;;      694 register type nRegs=1
                      01355 ;; ***  mov2w  1381  offset=0
                      01356 ;; >>> /home/sdcc-builder/build/sdcc-build/orig/sdcc/src/pic14/gen.c:1386:mov2w
                      01357 ;;      1109 rIdx = r0x104E 
0154   08??           01358         MOVF    r0x1008,W
                      01359 ;; >>> /home/sdcc-builder/build/sdcc-build/orig/sdcc/src/pic14/gen.c:1393:movwf
                      01360 ;;      1109 rIdx = r0x104F 
0155   00??           01361         MOVWF   r0x1009
                      01362 ;; ***  addSign  861
gpasm-1.4.0 #1106 (Oct  6 2014) obj\Debug\gpi   12-6-2023  18:52:19         PAGE 27


LOC    OBJECT CODE    LINE  SOURCE TEXT
  VALUE

                      01363 ;;; /home/sdcc-builder/build/sdcc-build/orig/sdcc/src/pic14/genarith.c:862:addSign *{*
                      01364 ;; ***  mov2w  1381  offset=0
                      01365 ;; >>> /home/sdcc-builder/build/sdcc-build/orig/sdcc/src/pic14/gen.c:1386:mov2w
                      01366 ;;      1109 rIdx = r0x104D 
0156   08??           01367         MOVF    r0x1007,W
                      01368 ;; >>> /home/sdcc-builder/build/sdcc-build/orig/sdcc/src/pic14/gen.c:5492:genGenericShift
0157   3C00           01369         SUBLW   0x00
                      01370 ;; >>> /home/sdcc-builder/build/sdcc-build/orig/sdcc/src/pic14/gen.c:5494:genGenericShift
0158   1903           01371         BTFSC   STATUS,2
                      01372 ;; >>> /home/sdcc-builder/build/sdcc-build/orig/sdcc/src/pic14/gen.c:5495:genGenericShift
                      01373 ;; ***  popGetLabel  key=17, label offset 45
0159   2???           01374         GOTO    _00162_DS_
                      01375 ;;; /home/sdcc-builder/build/sdcc-build/orig/sdcc/src/pic14/gen.c:5369:genMultiAsm *{*
                      01376 ;; ***  genMultiAsm  5370
                      01377 ;; >>> /home/sdcc-builder/build/sdcc-build/orig/sdcc/src/pic14/gen.c:5387:genMultiAsm
                      01378 ;;      1109 rIdx = r0x104F 
015A                  01379 _00161_DS_
015A   ???? ????      01380         BANKSEL r0x1009
015C   0D??           01381         RLF     r0x1009,F
                      01382 ;; >>> /home/sdcc-builder/build/sdcc-build/orig/sdcc/src/pic14/gen.c:5501:genGenericShift
015D   3E01           01383         ADDLW   0x01
                      01384 ;; >>> /home/sdcc-builder/build/sdcc-build/orig/sdcc/src/pic14/gen.c:5502:genGenericShift
015E   1C03           01385         BTFSS   STATUS,0
                      01386 ;; >>> /home/sdcc-builder/build/sdcc-build/orig/sdcc/src/pic14/gen.c:5503:genGenericShift
                      01387 ;; ***  popGetLabel  key=16, label offset 45
015F   2???           01388         GOTO    _00161_DS_
                      01389 ;;; /home/sdcc-builder/build/sdcc-build/orig/sdcc/src/pic14/gen.c:2316:resultRemat *{*
                      01390 ;;; /home/sdcc-builder/build/sdcc-build/orig/sdcc/src/pic14/gen.c:4220:genOr *{*
                      01391 ;; ***  genOr  4221
                      01392 ;;      694 register type nRegs=1
                      01393 ;;      694 register type nRegs=1
                      01394 ;; ***  aopForSym 315
                      01395 ;;      327 sym->rname = _PORTA, size = 1
                      01396 ;;      line = 4227 result AOP_DIR=_PORTA, size=1, left AOP_REG=r0x104C, size=1, right AOP_REG=r0x104F, 
                            size=1
                      01397 ;;      line = 4253 result AOP_DIR=_PORTA, size=1, left AOP_REG=r0x104C, size=1, right AOP_REG=r0x104F, 
                            size=1
                      01398 ;; >>> /home/sdcc-builder/build/sdcc-build/orig/sdcc/src/pic14/gen.c:4479:genOr
                      01399 ;;      1109 rIdx = r0x104F 
0160                  01400 _00162_DS_
0160   ???? ????      01401         BANKSEL r0x1009
0162   08??           01402         MOVF    r0x1009,W
                      01403 ;; >>> /home/sdcc-builder/build/sdcc-build/orig/sdcc/src/pic14/gen.c:4480:genOr
                      01404 ;;      1109 rIdx = r0x104C 
0163   04??           01405         IORWF   r0x1006,W
                      01406 ;; >>> /home/sdcc-builder/build/sdcc-build/orig/sdcc/src/pic14/gen.c:4481:genOr
                      01407 ;;      1009
                      01408 ;;      1028  _PORTA   offset=0
0164   ???? ????      01409         BANKSEL _PORTA
0166   00??           01410         MOVWF   _PORTA
                      01411 ;;; /home/sdcc-builder/build/sdcc-build/orig/sdcc/src/pic14/gen.c:2316:resultRemat *{*
                      01412 ;;; /home/sdcc-builder/build/sdcc-build/orig/sdcc/src/pic14/gen.c:2778:genGoto *{*
                      01413 ;; >>> /home/sdcc-builder/build/sdcc-build/orig/sdcc/src/pic14/gen.c:2780:genGoto
gpasm-1.4.0 #1106 (Oct  6 2014) obj\Debug\gpi   12-6-2023  18:52:19         PAGE 28


LOC    OBJECT CODE    LINE  SOURCE TEXT
  VALUE

                      01414 ;; ***  popGetLabel  key=7, label offset 45
                      01415         .line   42; "gpio.c"    break;
0167   2???           01416         GOTO    _00152_DS_
                      01417 ;;; /home/sdcc-builder/build/sdcc-build/orig/sdcc/src/pic14/gen.c:2316:resultRemat *{*
                      01418 ;;; /home/sdcc-builder/build/sdcc-build/orig/sdcc/src/pic14/gen.c:2760:genLabel *{*
                      01419 ;; ***  genLabel  2763
                      01420 ;;; /home/sdcc-builder/build/sdcc-build/orig/sdcc/src/pic14/gen.c:2316:resultRemat *{*
                      01421 ;;; /home/sdcc-builder/build/sdcc-build/orig/sdcc/src/pic14/gen.c:5418:genGenericShift *{*
                      01422 ;; ***  genGenericShift  5421
                      01423 ;;      694 register type nRegs=1
                      01424 ;;      694 register type nRegs=1
                      01425 ;; ***  mov2w  1381  offset=0
                      01426 ;; >>> /home/sdcc-builder/build/sdcc-build/orig/sdcc/src/pic14/gen.c:1384:mov2w
0168                  01427 _00147_DS_
                      01428         .line   44; "gpio.c"    SET_REGISTER_PIN(PORTB, pin, state);
0168   3001           01429         MOVLW   0x01
                      01430 ;; >>> /home/sdcc-builder/build/sdcc-build/orig/sdcc/src/pic14/gen.c:1393:movwf
                      01431 ;;      1109 rIdx = r0x104C 
0169   ???? ????      01432         BANKSEL r0x1006
016B   00??           01433         MOVWF   r0x1006
                      01434 ;; ***  addSign  861
                      01435 ;;; /home/sdcc-builder/build/sdcc-build/orig/sdcc/src/pic14/genarith.c:862:addSign *{*
                      01436 ;; ***  mov2w  1381  offset=0
                      01437 ;; >>> /home/sdcc-builder/build/sdcc-build/orig/sdcc/src/pic14/gen.c:1386:mov2w
                      01438 ;;      1109 rIdx = r0x104D 
016C   08??           01439         MOVF    r0x1007,W
                      01440 ;; >>> /home/sdcc-builder/build/sdcc-build/orig/sdcc/src/pic14/gen.c:5492:genGenericShift
016D   3C00           01441         SUBLW   0x00
                      01442 ;; >>> /home/sdcc-builder/build/sdcc-build/orig/sdcc/src/pic14/gen.c:5494:genGenericShift
016E   1903           01443         BTFSC   STATUS,2
                      01444 ;; >>> /home/sdcc-builder/build/sdcc-build/orig/sdcc/src/pic14/gen.c:5495:genGenericShift
                      01445 ;; ***  popGetLabel  key=19, label offset 45
016F   2???           01446         GOTO    _00164_DS_
                      01447 ;;; /home/sdcc-builder/build/sdcc-build/orig/sdcc/src/pic14/gen.c:5369:genMultiAsm *{*
                      01448 ;; ***  genMultiAsm  5370
                      01449 ;; >>> /home/sdcc-builder/build/sdcc-build/orig/sdcc/src/pic14/gen.c:5387:genMultiAsm
                      01450 ;;      1109 rIdx = r0x104C 
0170                  01451 _00163_DS_
0170   ???? ????      01452         BANKSEL r0x1006
0172   0D??           01453         RLF     r0x1006,F
                      01454 ;; >>> /home/sdcc-builder/build/sdcc-build/orig/sdcc/src/pic14/gen.c:5501:genGenericShift
0173   3E01           01455         ADDLW   0x01
                      01456 ;; >>> /home/sdcc-builder/build/sdcc-build/orig/sdcc/src/pic14/gen.c:5502:genGenericShift
0174   1C03           01457         BTFSS   STATUS,0
                      01458 ;; >>> /home/sdcc-builder/build/sdcc-build/orig/sdcc/src/pic14/gen.c:5503:genGenericShift
                      01459 ;; ***  popGetLabel  key=18, label offset 45
0175   2???           01460         GOTO    _00163_DS_
                      01461 ;;; /home/sdcc-builder/build/sdcc-build/orig/sdcc/src/pic14/gen.c:2316:resultRemat *{*
                      01462 ;;; /home/sdcc-builder/build/sdcc-build/orig/sdcc/src/pic14/gen.c:1609:genCpl *{*
                      01463 ;; ***  genCpl  1611
                      01464 ;;      694 register type nRegs=1
                      01465 ;;      694 register type nRegs=1
                      01466 ;; >>> /home/sdcc-builder/build/sdcc-build/orig/sdcc/src/pic14/gen.c:1631:genCpl
gpasm-1.4.0 #1106 (Oct  6 2014) obj\Debug\gpi   12-6-2023  18:52:19         PAGE 29


LOC    OBJECT CODE    LINE  SOURCE TEXT
  VALUE

                      01467 ;;      1109 rIdx = r0x104C 
0176                  01468 _00164_DS_
0176   ???? ????      01469         BANKSEL r0x1006
0178   09??           01470         COMF    r0x1006,F
0179   ???? ????      01471         BANKSEL _PORTB
017B   08??           01472         MOVF    _PORTB,W
                      01473 ;; >>> /home/sdcc-builder/build/sdcc-build/orig/sdcc/src/pic14/gen.c:4138:genAnd
                      01474 ;;      1109 rIdx = r0x104C 
017C   ???? ????      01475         BANKSEL r0x1006
017E   05??           01476         ANDWF   r0x1006,F
                      01477 ;;; /home/sdcc-builder/build/sdcc-build/orig/sdcc/src/pic14/gen.c:2316:resultRemat *{*
                      01478 ;;; /home/sdcc-builder/build/sdcc-build/orig/sdcc/src/pic14/gen.c:5418:genGenericShift *{*
                      01479 ;; ***  genGenericShift  5421
                      01480 ;;      694 register type nRegs=1
                      01481 ;;      694 register type nRegs=1
                      01482 ;;      694 register type nRegs=1
                      01483 ;; ***  mov2w  1381  offset=0
                      01484 ;; >>> /home/sdcc-builder/build/sdcc-build/orig/sdcc/src/pic14/gen.c:1386:mov2w
                      01485 ;;      1109 rIdx = r0x104E 
017F   08??           01486         MOVF    r0x1008,W
                      01487 ;; >>> /home/sdcc-builder/build/sdcc-build/orig/sdcc/src/pic14/gen.c:1393:movwf
                      01488 ;;      1109 rIdx = r0x104F 
0180   00??           01489         MOVWF   r0x1009
                      01490 ;; ***  addSign  861
                      01491 ;;; /home/sdcc-builder/build/sdcc-build/orig/sdcc/src/pic14/genarith.c:862:addSign *{*
                      01492 ;; ***  mov2w  1381  offset=0
                      01493 ;; >>> /home/sdcc-builder/build/sdcc-build/orig/sdcc/src/pic14/gen.c:1386:mov2w
                      01494 ;;      1109 rIdx = r0x104D 
0181   08??           01495         MOVF    r0x1007,W
                      01496 ;; >>> /home/sdcc-builder/build/sdcc-build/orig/sdcc/src/pic14/gen.c:5492:genGenericShift
0182   3C00           01497         SUBLW   0x00
                      01498 ;; >>> /home/sdcc-builder/build/sdcc-build/orig/sdcc/src/pic14/gen.c:5494:genGenericShift
0183   1903           01499         BTFSC   STATUS,2
                      01500 ;; >>> /home/sdcc-builder/build/sdcc-build/orig/sdcc/src/pic14/gen.c:5495:genGenericShift
                      01501 ;; ***  popGetLabel  key=21, label offset 45
0184   2???           01502         GOTO    _00166_DS_
                      01503 ;;; /home/sdcc-builder/build/sdcc-build/orig/sdcc/src/pic14/gen.c:5369:genMultiAsm *{*
                      01504 ;; ***  genMultiAsm  5370
                      01505 ;; >>> /home/sdcc-builder/build/sdcc-build/orig/sdcc/src/pic14/gen.c:5387:genMultiAsm
                      01506 ;;      1109 rIdx = r0x104F 
0185                  01507 _00165_DS_
0185   ???? ????      01508         BANKSEL r0x1009
0187   0D??           01509         RLF     r0x1009,F
                      01510 ;; >>> /home/sdcc-builder/build/sdcc-build/orig/sdcc/src/pic14/gen.c:5501:genGenericShift
0188   3E01           01511         ADDLW   0x01
                      01512 ;; >>> /home/sdcc-builder/build/sdcc-build/orig/sdcc/src/pic14/gen.c:5502:genGenericShift
0189   1C03           01513         BTFSS   STATUS,0
                      01514 ;; >>> /home/sdcc-builder/build/sdcc-build/orig/sdcc/src/pic14/gen.c:5503:genGenericShift
                      01515 ;; ***  popGetLabel  key=20, label offset 45
018A   2???           01516         GOTO    _00165_DS_
                      01517 ;;; /home/sdcc-builder/build/sdcc-build/orig/sdcc/src/pic14/gen.c:2316:resultRemat *{*
                      01518 ;;; /home/sdcc-builder/build/sdcc-build/orig/sdcc/src/pic14/gen.c:4220:genOr *{*
                      01519 ;; ***  genOr  4221
gpasm-1.4.0 #1106 (Oct  6 2014) obj\Debug\gpi   12-6-2023  18:52:19         PAGE 30


LOC    OBJECT CODE    LINE  SOURCE TEXT
  VALUE

                      01520 ;;      694 register type nRegs=1
                      01521 ;;      694 register type nRegs=1
                      01522 ;; ***  aopForSym 315
                      01523 ;;      327 sym->rname = _PORTB, size = 1
                      01524 ;;      line = 4227 result AOP_DIR=_PORTB, size=1, left AOP_REG=r0x104C, size=1, right AOP_REG=r0x104F, 
                            size=1
                      01525 ;;      line = 4253 result AOP_DIR=_PORTB, size=1, left AOP_REG=r0x104C, size=1, right AOP_REG=r0x104F, 
                            size=1
                      01526 ;; >>> /home/sdcc-builder/build/sdcc-build/orig/sdcc/src/pic14/gen.c:4479:genOr
                      01527 ;;      1109 rIdx = r0x104F 
018B                  01528 _00166_DS_
018B   ???? ????      01529         BANKSEL r0x1009
018D   08??           01530         MOVF    r0x1009,W
                      01531 ;; >>> /home/sdcc-builder/build/sdcc-build/orig/sdcc/src/pic14/gen.c:4480:genOr
                      01532 ;;      1109 rIdx = r0x104C 
018E   04??           01533         IORWF   r0x1006,W
                      01534 ;; >>> /home/sdcc-builder/build/sdcc-build/orig/sdcc/src/pic14/gen.c:4481:genOr
                      01535 ;;      1009
                      01536 ;;      1028  _PORTB   offset=0
018F   ???? ????      01537         BANKSEL _PORTB
0191   00??           01538         MOVWF   _PORTB
                      01539 ;;; /home/sdcc-builder/build/sdcc-build/orig/sdcc/src/pic14/gen.c:2316:resultRemat *{*
                      01540 ;;; /home/sdcc-builder/build/sdcc-build/orig/sdcc/src/pic14/gen.c:2778:genGoto *{*
                      01541 ;; >>> /home/sdcc-builder/build/sdcc-build/orig/sdcc/src/pic14/gen.c:2780:genGoto
                      01542 ;; ***  popGetLabel  key=7, label offset 45
                      01543         .line   45; "gpio.c"    break;
0192   2???           01544         GOTO    _00152_DS_
                      01545 ;;; /home/sdcc-builder/build/sdcc-build/orig/sdcc/src/pic14/gen.c:2316:resultRemat *{*
                      01546 ;;; /home/sdcc-builder/build/sdcc-build/orig/sdcc/src/pic14/gen.c:2760:genLabel *{*
                      01547 ;; ***  genLabel  2763
                      01548 ;;; /home/sdcc-builder/build/sdcc-build/orig/sdcc/src/pic14/gen.c:2316:resultRemat *{*
                      01549 ;;; /home/sdcc-builder/build/sdcc-build/orig/sdcc/src/pic14/gen.c:5418:genGenericShift *{*
                      01550 ;; ***  genGenericShift  5421
                      01551 ;;      694 register type nRegs=1
                      01552 ;;      694 register type nRegs=1
                      01553 ;; ***  mov2w  1381  offset=0
                      01554 ;; >>> /home/sdcc-builder/build/sdcc-build/orig/sdcc/src/pic14/gen.c:1384:mov2w
0193                  01555 _00148_DS_
                      01556         .line   47; "gpio.c"    SET_REGISTER_PIN(PORTC, pin, state);
0193   3001           01557         MOVLW   0x01
                      01558 ;; >>> /home/sdcc-builder/build/sdcc-build/orig/sdcc/src/pic14/gen.c:1393:movwf
                      01559 ;;      1109 rIdx = r0x104C 
0194   ???? ????      01560         BANKSEL r0x1006
0196   00??           01561         MOVWF   r0x1006
                      01562 ;; ***  addSign  861
                      01563 ;;; /home/sdcc-builder/build/sdcc-build/orig/sdcc/src/pic14/genarith.c:862:addSign *{*
                      01564 ;; ***  mov2w  1381  offset=0
                      01565 ;; >>> /home/sdcc-builder/build/sdcc-build/orig/sdcc/src/pic14/gen.c:1386:mov2w
                      01566 ;;      1109 rIdx = r0x104D 
0197   08??           01567         MOVF    r0x1007,W
                      01568 ;; >>> /home/sdcc-builder/build/sdcc-build/orig/sdcc/src/pic14/gen.c:5492:genGenericShift
0198   3C00           01569         SUBLW   0x00
                      01570 ;; >>> /home/sdcc-builder/build/sdcc-build/orig/sdcc/src/pic14/gen.c:5494:genGenericShift
gpasm-1.4.0 #1106 (Oct  6 2014) obj\Debug\gpi   12-6-2023  18:52:19         PAGE 31


LOC    OBJECT CODE    LINE  SOURCE TEXT
  VALUE

0199   1903           01571         BTFSC   STATUS,2
                      01572 ;; >>> /home/sdcc-builder/build/sdcc-build/orig/sdcc/src/pic14/gen.c:5495:genGenericShift
                      01573 ;; ***  popGetLabel  key=23, label offset 45
019A   2???           01574         GOTO    _00168_DS_
                      01575 ;;; /home/sdcc-builder/build/sdcc-build/orig/sdcc/src/pic14/gen.c:5369:genMultiAsm *{*
                      01576 ;; ***  genMultiAsm  5370
                      01577 ;; >>> /home/sdcc-builder/build/sdcc-build/orig/sdcc/src/pic14/gen.c:5387:genMultiAsm
                      01578 ;;      1109 rIdx = r0x104C 
019B                  01579 _00167_DS_
019B   ???? ????      01580         BANKSEL r0x1006
019D   0D??           01581         RLF     r0x1006,F
                      01582 ;; >>> /home/sdcc-builder/build/sdcc-build/orig/sdcc/src/pic14/gen.c:5501:genGenericShift
019E   3E01           01583         ADDLW   0x01
                      01584 ;; >>> /home/sdcc-builder/build/sdcc-build/orig/sdcc/src/pic14/gen.c:5502:genGenericShift
019F   1C03           01585         BTFSS   STATUS,0
                      01586 ;; >>> /home/sdcc-builder/build/sdcc-build/orig/sdcc/src/pic14/gen.c:5503:genGenericShift
                      01587 ;; ***  popGetLabel  key=22, label offset 45
01A0   2???           01588         GOTO    _00167_DS_
                      01589 ;;; /home/sdcc-builder/build/sdcc-build/orig/sdcc/src/pic14/gen.c:2316:resultRemat *{*
                      01590 ;;; /home/sdcc-builder/build/sdcc-build/orig/sdcc/src/pic14/gen.c:1609:genCpl *{*
                      01591 ;; ***  genCpl  1611
                      01592 ;;      694 register type nRegs=1
                      01593 ;;      694 register type nRegs=1
                      01594 ;; >>> /home/sdcc-builder/build/sdcc-build/orig/sdcc/src/pic14/gen.c:1631:genCpl
                      01595 ;;      1109 rIdx = r0x104C 
01A1                  01596 _00168_DS_
01A1   ???? ????      01597         BANKSEL r0x1006
01A3   09??           01598         COMF    r0x1006,F
01A4   ???? ????      01599         BANKSEL _PORTC
01A6   08??           01600         MOVF    _PORTC,W
                      01601 ;; >>> /home/sdcc-builder/build/sdcc-build/orig/sdcc/src/pic14/gen.c:4138:genAnd
                      01602 ;;      1109 rIdx = r0x104C 
01A7   ???? ????      01603         BANKSEL r0x1006
01A9   05??           01604         ANDWF   r0x1006,F
                      01605 ;;; /home/sdcc-builder/build/sdcc-build/orig/sdcc/src/pic14/gen.c:2316:resultRemat *{*
                      01606 ;;; /home/sdcc-builder/build/sdcc-build/orig/sdcc/src/pic14/gen.c:5418:genGenericShift *{*
                      01607 ;; ***  genGenericShift  5421
                      01608 ;;      694 register type nRegs=1
                      01609 ;;      694 register type nRegs=1
                      01610 ;;      694 register type nRegs=1
                      01611 ;; ***  mov2w  1381  offset=0
                      01612 ;; >>> /home/sdcc-builder/build/sdcc-build/orig/sdcc/src/pic14/gen.c:1386:mov2w
                      01613 ;;      1109 rIdx = r0x104E 
01AA   08??           01614         MOVF    r0x1008,W
                      01615 ;; >>> /home/sdcc-builder/build/sdcc-build/orig/sdcc/src/pic14/gen.c:1393:movwf
                      01616 ;;      1109 rIdx = r0x104F 
01AB   00??           01617         MOVWF   r0x1009
                      01618 ;; ***  addSign  861
                      01619 ;;; /home/sdcc-builder/build/sdcc-build/orig/sdcc/src/pic14/genarith.c:862:addSign *{*
                      01620 ;; ***  mov2w  1381  offset=0
                      01621 ;; >>> /home/sdcc-builder/build/sdcc-build/orig/sdcc/src/pic14/gen.c:1386:mov2w
                      01622 ;;      1109 rIdx = r0x104D 
01AC   08??           01623         MOVF    r0x1007,W
gpasm-1.4.0 #1106 (Oct  6 2014) obj\Debug\gpi   12-6-2023  18:52:19         PAGE 32


LOC    OBJECT CODE    LINE  SOURCE TEXT
  VALUE

                      01624 ;; >>> /home/sdcc-builder/build/sdcc-build/orig/sdcc/src/pic14/gen.c:5492:genGenericShift
01AD   3C00           01625         SUBLW   0x00
                      01626 ;; >>> /home/sdcc-builder/build/sdcc-build/orig/sdcc/src/pic14/gen.c:5494:genGenericShift
01AE   1903           01627         BTFSC   STATUS,2
                      01628 ;; >>> /home/sdcc-builder/build/sdcc-build/orig/sdcc/src/pic14/gen.c:5495:genGenericShift
                      01629 ;; ***  popGetLabel  key=25, label offset 45
01AF   2???           01630         GOTO    _00170_DS_
                      01631 ;;; /home/sdcc-builder/build/sdcc-build/orig/sdcc/src/pic14/gen.c:5369:genMultiAsm *{*
                      01632 ;; ***  genMultiAsm  5370
                      01633 ;; >>> /home/sdcc-builder/build/sdcc-build/orig/sdcc/src/pic14/gen.c:5387:genMultiAsm
                      01634 ;;      1109 rIdx = r0x104F 
01B0                  01635 _00169_DS_
01B0   ???? ????      01636         BANKSEL r0x1009
01B2   0D??           01637         RLF     r0x1009,F
                      01638 ;; >>> /home/sdcc-builder/build/sdcc-build/orig/sdcc/src/pic14/gen.c:5501:genGenericShift
01B3   3E01           01639         ADDLW   0x01
                      01640 ;; >>> /home/sdcc-builder/build/sdcc-build/orig/sdcc/src/pic14/gen.c:5502:genGenericShift
01B4   1C03           01641         BTFSS   STATUS,0
                      01642 ;; >>> /home/sdcc-builder/build/sdcc-build/orig/sdcc/src/pic14/gen.c:5503:genGenericShift
                      01643 ;; ***  popGetLabel  key=24, label offset 45
01B5   2???           01644         GOTO    _00169_DS_
                      01645 ;;; /home/sdcc-builder/build/sdcc-build/orig/sdcc/src/pic14/gen.c:2316:resultRemat *{*
                      01646 ;;; /home/sdcc-builder/build/sdcc-build/orig/sdcc/src/pic14/gen.c:4220:genOr *{*
                      01647 ;; ***  genOr  4221
                      01648 ;;      694 register type nRegs=1
                      01649 ;;      694 register type nRegs=1
                      01650 ;; ***  aopForSym 315
                      01651 ;;      327 sym->rname = _PORTC, size = 1
                      01652 ;;      line = 4227 result AOP_DIR=_PORTC, size=1, left AOP_REG=r0x104C, size=1, right AOP_REG=r0x104F, 
                            size=1
                      01653 ;;      line = 4253 result AOP_DIR=_PORTC, size=1, left AOP_REG=r0x104C, size=1, right AOP_REG=r0x104F, 
                            size=1
                      01654 ;; >>> /home/sdcc-builder/build/sdcc-build/orig/sdcc/src/pic14/gen.c:4479:genOr
                      01655 ;;      1109 rIdx = r0x104F 
01B6                  01656 _00170_DS_
01B6   ???? ????      01657         BANKSEL r0x1009
01B8   08??           01658         MOVF    r0x1009,W
                      01659 ;; >>> /home/sdcc-builder/build/sdcc-build/orig/sdcc/src/pic14/gen.c:4480:genOr
                      01660 ;;      1109 rIdx = r0x104C 
01B9   04??           01661         IORWF   r0x1006,W
                      01662 ;; >>> /home/sdcc-builder/build/sdcc-build/orig/sdcc/src/pic14/gen.c:4481:genOr
                      01663 ;;      1009
                      01664 ;;      1028  _PORTC   offset=0
01BA   ???? ????      01665         BANKSEL _PORTC
01BC   00??           01666         MOVWF   _PORTC
                      01667 ;;; /home/sdcc-builder/build/sdcc-build/orig/sdcc/src/pic14/gen.c:2316:resultRemat *{*
                      01668 ;;; /home/sdcc-builder/build/sdcc-build/orig/sdcc/src/pic14/gen.c:2778:genGoto *{*
                      01669 ;; >>> /home/sdcc-builder/build/sdcc-build/orig/sdcc/src/pic14/gen.c:2780:genGoto
                      01670 ;; ***  popGetLabel  key=7, label offset 45
                      01671         .line   48; "gpio.c"    break;
01BD   2???           01672         GOTO    _00152_DS_
                      01673 ;;; /home/sdcc-builder/build/sdcc-build/orig/sdcc/src/pic14/gen.c:2316:resultRemat *{*
                      01674 ;;; /home/sdcc-builder/build/sdcc-build/orig/sdcc/src/pic14/gen.c:2760:genLabel *{*
gpasm-1.4.0 #1106 (Oct  6 2014) obj\Debug\gpi   12-6-2023  18:52:19         PAGE 33


LOC    OBJECT CODE    LINE  SOURCE TEXT
  VALUE

                      01675 ;; ***  genLabel  2763
                      01676 ;;; /home/sdcc-builder/build/sdcc-build/orig/sdcc/src/pic14/gen.c:2316:resultRemat *{*
                      01677 ;;; /home/sdcc-builder/build/sdcc-build/orig/sdcc/src/pic14/gen.c:5418:genGenericShift *{*
                      01678 ;; ***  genGenericShift  5421
                      01679 ;;      694 register type nRegs=1
                      01680 ;;      694 register type nRegs=1
                      01681 ;; ***  mov2w  1381  offset=0
                      01682 ;; >>> /home/sdcc-builder/build/sdcc-build/orig/sdcc/src/pic14/gen.c:1384:mov2w
01BE                  01683 _00149_DS_
                      01684         .line   50; "gpio.c"    SET_REGISTER_PIN(PORTD, pin, state);
01BE   3001           01685         MOVLW   0x01
                      01686 ;; >>> /home/sdcc-builder/build/sdcc-build/orig/sdcc/src/pic14/gen.c:1393:movwf
                      01687 ;;      1109 rIdx = r0x104C 
01BF   ???? ????      01688         BANKSEL r0x1006
01C1   00??           01689         MOVWF   r0x1006
                      01690 ;; ***  addSign  861
                      01691 ;;; /home/sdcc-builder/build/sdcc-build/orig/sdcc/src/pic14/genarith.c:862:addSign *{*
                      01692 ;; ***  mov2w  1381  offset=0
                      01693 ;; >>> /home/sdcc-builder/build/sdcc-build/orig/sdcc/src/pic14/gen.c:1386:mov2w
                      01694 ;;      1109 rIdx = r0x104D 
01C2   08??           01695         MOVF    r0x1007,W
                      01696 ;; >>> /home/sdcc-builder/build/sdcc-build/orig/sdcc/src/pic14/gen.c:5492:genGenericShift
01C3   3C00           01697         SUBLW   0x00
                      01698 ;; >>> /home/sdcc-builder/build/sdcc-build/orig/sdcc/src/pic14/gen.c:5494:genGenericShift
01C4   1903           01699         BTFSC   STATUS,2
                      01700 ;; >>> /home/sdcc-builder/build/sdcc-build/orig/sdcc/src/pic14/gen.c:5495:genGenericShift
                      01701 ;; ***  popGetLabel  key=27, label offset 45
01C5   2???           01702         GOTO    _00172_DS_
                      01703 ;;; /home/sdcc-builder/build/sdcc-build/orig/sdcc/src/pic14/gen.c:5369:genMultiAsm *{*
                      01704 ;; ***  genMultiAsm  5370
                      01705 ;; >>> /home/sdcc-builder/build/sdcc-build/orig/sdcc/src/pic14/gen.c:5387:genMultiAsm
                      01706 ;;      1109 rIdx = r0x104C 
01C6                  01707 _00171_DS_
01C6   ???? ????      01708         BANKSEL r0x1006
01C8   0D??           01709         RLF     r0x1006,F
                      01710 ;; >>> /home/sdcc-builder/build/sdcc-build/orig/sdcc/src/pic14/gen.c:5501:genGenericShift
01C9   3E01           01711         ADDLW   0x01
                      01712 ;; >>> /home/sdcc-builder/build/sdcc-build/orig/sdcc/src/pic14/gen.c:5502:genGenericShift
01CA   1C03           01713         BTFSS   STATUS,0
                      01714 ;; >>> /home/sdcc-builder/build/sdcc-build/orig/sdcc/src/pic14/gen.c:5503:genGenericShift
                      01715 ;; ***  popGetLabel  key=26, label offset 45
01CB   2???           01716         GOTO    _00171_DS_
                      01717 ;;; /home/sdcc-builder/build/sdcc-build/orig/sdcc/src/pic14/gen.c:2316:resultRemat *{*
                      01718 ;;; /home/sdcc-builder/build/sdcc-build/orig/sdcc/src/pic14/gen.c:1609:genCpl *{*
                      01719 ;; ***  genCpl  1611
                      01720 ;;      694 register type nRegs=1
                      01721 ;;      694 register type nRegs=1
                      01722 ;; >>> /home/sdcc-builder/build/sdcc-build/orig/sdcc/src/pic14/gen.c:1631:genCpl
                      01723 ;;      1109 rIdx = r0x104C 
01CC                  01724 _00172_DS_
01CC   ???? ????      01725         BANKSEL r0x1006
01CE   09??           01726         COMF    r0x1006,F
01CF   ???? ????      01727         BANKSEL _PORTD
gpasm-1.4.0 #1106 (Oct  6 2014) obj\Debug\gpi   12-6-2023  18:52:19         PAGE 34


LOC    OBJECT CODE    LINE  SOURCE TEXT
  VALUE

01D1   08??           01728         MOVF    _PORTD,W
                      01729 ;; >>> /home/sdcc-builder/build/sdcc-build/orig/sdcc/src/pic14/gen.c:4138:genAnd
                      01730 ;;      1109 rIdx = r0x104C 
01D2   ???? ????      01731         BANKSEL r0x1006
01D4   05??           01732         ANDWF   r0x1006,F
                      01733 ;;; /home/sdcc-builder/build/sdcc-build/orig/sdcc/src/pic14/gen.c:2316:resultRemat *{*
                      01734 ;;; /home/sdcc-builder/build/sdcc-build/orig/sdcc/src/pic14/gen.c:5418:genGenericShift *{*
                      01735 ;; ***  genGenericShift  5421
                      01736 ;;      694 register type nRegs=1
                      01737 ;;      694 register type nRegs=1
                      01738 ;;      694 register type nRegs=1
                      01739 ;; ***  mov2w  1381  offset=0
                      01740 ;; >>> /home/sdcc-builder/build/sdcc-build/orig/sdcc/src/pic14/gen.c:1386:mov2w
                      01741 ;;      1109 rIdx = r0x104E 
01D5   08??           01742         MOVF    r0x1008,W
                      01743 ;; >>> /home/sdcc-builder/build/sdcc-build/orig/sdcc/src/pic14/gen.c:1393:movwf
                      01744 ;;      1109 rIdx = r0x104F 
01D6   00??           01745         MOVWF   r0x1009
                      01746 ;; ***  addSign  861
                      01747 ;;; /home/sdcc-builder/build/sdcc-build/orig/sdcc/src/pic14/genarith.c:862:addSign *{*
                      01748 ;; ***  mov2w  1381  offset=0
                      01749 ;; >>> /home/sdcc-builder/build/sdcc-build/orig/sdcc/src/pic14/gen.c:1386:mov2w
                      01750 ;;      1109 rIdx = r0x104D 
01D7   08??           01751         MOVF    r0x1007,W
                      01752 ;; >>> /home/sdcc-builder/build/sdcc-build/orig/sdcc/src/pic14/gen.c:5492:genGenericShift
01D8   3C00           01753         SUBLW   0x00
                      01754 ;; >>> /home/sdcc-builder/build/sdcc-build/orig/sdcc/src/pic14/gen.c:5494:genGenericShift
01D9   1903           01755         BTFSC   STATUS,2
                      01756 ;; >>> /home/sdcc-builder/build/sdcc-build/orig/sdcc/src/pic14/gen.c:5495:genGenericShift
                      01757 ;; ***  popGetLabel  key=29, label offset 45
01DA   2???           01758         GOTO    _00174_DS_
                      01759 ;;; /home/sdcc-builder/build/sdcc-build/orig/sdcc/src/pic14/gen.c:5369:genMultiAsm *{*
                      01760 ;; ***  genMultiAsm  5370
                      01761 ;; >>> /home/sdcc-builder/build/sdcc-build/orig/sdcc/src/pic14/gen.c:5387:genMultiAsm
                      01762 ;;      1109 rIdx = r0x104F 
01DB                  01763 _00173_DS_
01DB   ???? ????      01764         BANKSEL r0x1009
01DD   0D??           01765         RLF     r0x1009,F
                      01766 ;; >>> /home/sdcc-builder/build/sdcc-build/orig/sdcc/src/pic14/gen.c:5501:genGenericShift
01DE   3E01           01767         ADDLW   0x01
                      01768 ;; >>> /home/sdcc-builder/build/sdcc-build/orig/sdcc/src/pic14/gen.c:5502:genGenericShift
01DF   1C03           01769         BTFSS   STATUS,0
                      01770 ;; >>> /home/sdcc-builder/build/sdcc-build/orig/sdcc/src/pic14/gen.c:5503:genGenericShift
                      01771 ;; ***  popGetLabel  key=28, label offset 45
01E0   2???           01772         GOTO    _00173_DS_
                      01773 ;;; /home/sdcc-builder/build/sdcc-build/orig/sdcc/src/pic14/gen.c:2316:resultRemat *{*
                      01774 ;;; /home/sdcc-builder/build/sdcc-build/orig/sdcc/src/pic14/gen.c:4220:genOr *{*
                      01775 ;; ***  genOr  4221
                      01776 ;;      694 register type nRegs=1
                      01777 ;;      694 register type nRegs=1
                      01778 ;; ***  aopForSym 315
                      01779 ;;      327 sym->rname = _PORTD, size = 1
                      01780 ;;      line = 4227 result AOP_DIR=_PORTD, size=1, left AOP_REG=r0x104C, size=1, right AOP_REG=r0x104F, 
gpasm-1.4.0 #1106 (Oct  6 2014) obj\Debug\gpi   12-6-2023  18:52:19         PAGE 35


LOC    OBJECT CODE    LINE  SOURCE TEXT
  VALUE

                            size=1
                      01781 ;;      line = 4253 result AOP_DIR=_PORTD, size=1, left AOP_REG=r0x104C, size=1, right AOP_REG=r0x104F, 
                            size=1
                      01782 ;; >>> /home/sdcc-builder/build/sdcc-build/orig/sdcc/src/pic14/gen.c:4479:genOr
                      01783 ;;      1109 rIdx = r0x104F 
01E1                  01784 _00174_DS_
01E1   ???? ????      01785         BANKSEL r0x1009
01E3   08??           01786         MOVF    r0x1009,W
                      01787 ;; >>> /home/sdcc-builder/build/sdcc-build/orig/sdcc/src/pic14/gen.c:4480:genOr
                      01788 ;;      1109 rIdx = r0x104C 
01E4   04??           01789         IORWF   r0x1006,W
                      01790 ;; >>> /home/sdcc-builder/build/sdcc-build/orig/sdcc/src/pic14/gen.c:4481:genOr
                      01791 ;;      1009
                      01792 ;;      1028  _PORTD   offset=0
01E5   ???? ????      01793         BANKSEL _PORTD
01E7   00??           01794         MOVWF   _PORTD
                      01795 ;;; /home/sdcc-builder/build/sdcc-build/orig/sdcc/src/pic14/gen.c:2316:resultRemat *{*
                      01796 ;;; /home/sdcc-builder/build/sdcc-build/orig/sdcc/src/pic14/gen.c:2778:genGoto *{*
                      01797 ;; >>> /home/sdcc-builder/build/sdcc-build/orig/sdcc/src/pic14/gen.c:2780:genGoto
                      01798 ;; ***  popGetLabel  key=7, label offset 45
                      01799         .line   51; "gpio.c"    break;
01E8   2???           01800         GOTO    _00152_DS_
                      01801 ;;; /home/sdcc-builder/build/sdcc-build/orig/sdcc/src/pic14/gen.c:2316:resultRemat *{*
                      01802 ;;; /home/sdcc-builder/build/sdcc-build/orig/sdcc/src/pic14/gen.c:2760:genLabel *{*
                      01803 ;; ***  genLabel  2763
                      01804 ;;; /home/sdcc-builder/build/sdcc-build/orig/sdcc/src/pic14/gen.c:2316:resultRemat *{*
                      01805 ;;; /home/sdcc-builder/build/sdcc-build/orig/sdcc/src/pic14/gen.c:5418:genGenericShift *{*
                      01806 ;; ***  genGenericShift  5421
                      01807 ;;      694 register type nRegs=1
                      01808 ;;      694 register type nRegs=1
                      01809 ;; ***  mov2w  1381  offset=0
                      01810 ;; >>> /home/sdcc-builder/build/sdcc-build/orig/sdcc/src/pic14/gen.c:1384:mov2w
01E9                  01811 _00150_DS_
                      01812         .line   53; "gpio.c"    SET_REGISTER_PIN(PORTE, pin, state);
01E9   3001           01813         MOVLW   0x01
                      01814 ;; >>> /home/sdcc-builder/build/sdcc-build/orig/sdcc/src/pic14/gen.c:1393:movwf
                      01815 ;;      1109 rIdx = r0x104C 
01EA   ???? ????      01816         BANKSEL r0x1006
01EC   00??           01817         MOVWF   r0x1006
                      01818 ;; ***  addSign  861
                      01819 ;;; /home/sdcc-builder/build/sdcc-build/orig/sdcc/src/pic14/genarith.c:862:addSign *{*
                      01820 ;; ***  mov2w  1381  offset=0
                      01821 ;; >>> /home/sdcc-builder/build/sdcc-build/orig/sdcc/src/pic14/gen.c:1386:mov2w
                      01822 ;;      1109 rIdx = r0x104D 
01ED   08??           01823         MOVF    r0x1007,W
                      01824 ;; >>> /home/sdcc-builder/build/sdcc-build/orig/sdcc/src/pic14/gen.c:5492:genGenericShift
01EE   3C00           01825         SUBLW   0x00
                      01826 ;; >>> /home/sdcc-builder/build/sdcc-build/orig/sdcc/src/pic14/gen.c:5494:genGenericShift
01EF   1903           01827         BTFSC   STATUS,2
                      01828 ;; >>> /home/sdcc-builder/build/sdcc-build/orig/sdcc/src/pic14/gen.c:5495:genGenericShift
                      01829 ;; ***  popGetLabel  key=31, label offset 45
01F0   2???           01830         GOTO    _00176_DS_
                      01831 ;;; /home/sdcc-builder/build/sdcc-build/orig/sdcc/src/pic14/gen.c:5369:genMultiAsm *{*
gpasm-1.4.0 #1106 (Oct  6 2014) obj\Debug\gpi   12-6-2023  18:52:19         PAGE 36


LOC    OBJECT CODE    LINE  SOURCE TEXT
  VALUE

                      01832 ;; ***  genMultiAsm  5370
                      01833 ;; >>> /home/sdcc-builder/build/sdcc-build/orig/sdcc/src/pic14/gen.c:5387:genMultiAsm
                      01834 ;;      1109 rIdx = r0x104C 
01F1                  01835 _00175_DS_
01F1   ???? ????      01836         BANKSEL r0x1006
01F3   0D??           01837         RLF     r0x1006,F
                      01838 ;; >>> /home/sdcc-builder/build/sdcc-build/orig/sdcc/src/pic14/gen.c:5501:genGenericShift
01F4   3E01           01839         ADDLW   0x01
                      01840 ;; >>> /home/sdcc-builder/build/sdcc-build/orig/sdcc/src/pic14/gen.c:5502:genGenericShift
01F5   1C03           01841         BTFSS   STATUS,0
                      01842 ;; >>> /home/sdcc-builder/build/sdcc-build/orig/sdcc/src/pic14/gen.c:5503:genGenericShift
                      01843 ;; ***  popGetLabel  key=30, label offset 45
01F6   2???           01844         GOTO    _00175_DS_
                      01845 ;;; /home/sdcc-builder/build/sdcc-build/orig/sdcc/src/pic14/gen.c:2316:resultRemat *{*
                      01846 ;;; /home/sdcc-builder/build/sdcc-build/orig/sdcc/src/pic14/gen.c:1609:genCpl *{*
                      01847 ;; ***  genCpl  1611
                      01848 ;;      694 register type nRegs=1
                      01849 ;;      694 register type nRegs=1
                      01850 ;; >>> /home/sdcc-builder/build/sdcc-build/orig/sdcc/src/pic14/gen.c:1631:genCpl
                      01851 ;;      1109 rIdx = r0x104C 
01F7                  01852 _00176_DS_
01F7   ???? ????      01853         BANKSEL r0x1006
01F9   09??           01854         COMF    r0x1006,F
01FA   ???? ????      01855         BANKSEL _PORTE
01FC   08??           01856         MOVF    _PORTE,W
                      01857 ;; >>> /home/sdcc-builder/build/sdcc-build/orig/sdcc/src/pic14/gen.c:4138:genAnd
                      01858 ;;      1109 rIdx = r0x104C 
01FD   ???? ????      01859         BANKSEL r0x1006
01FF   05??           01860         ANDWF   r0x1006,F
                      01861 ;;; /home/sdcc-builder/build/sdcc-build/orig/sdcc/src/pic14/gen.c:2316:resultRemat *{*
                      01862 ;;; /home/sdcc-builder/build/sdcc-build/orig/sdcc/src/pic14/gen.c:5418:genGenericShift *{*
                      01863 ;; ***  genGenericShift  5421
                      01864 ;;      694 register type nRegs=1
                      01865 ;;      694 register type nRegs=1
                      01866 ;;      694 register type nRegs=1
                      01867 ;; ***  mov2w  1381  offset=0
                      01868 ;; >>> /home/sdcc-builder/build/sdcc-build/orig/sdcc/src/pic14/gen.c:1386:mov2w
                      01869 ;;      1109 rIdx = r0x104E 
0200   08??           01870         MOVF    r0x1008,W
                      01871 ;; >>> /home/sdcc-builder/build/sdcc-build/orig/sdcc/src/pic14/gen.c:1393:movwf
                      01872 ;;      1109 rIdx = r0x104F 
0201   00??           01873         MOVWF   r0x1009
                      01874 ;; ***  addSign  861
                      01875 ;;; /home/sdcc-builder/build/sdcc-build/orig/sdcc/src/pic14/genarith.c:862:addSign *{*
                      01876 ;; ***  mov2w  1381  offset=0
                      01877 ;; >>> /home/sdcc-builder/build/sdcc-build/orig/sdcc/src/pic14/gen.c:1386:mov2w
                      01878 ;;      1109 rIdx = r0x104D 
0202   08??           01879         MOVF    r0x1007,W
                      01880 ;; >>> /home/sdcc-builder/build/sdcc-build/orig/sdcc/src/pic14/gen.c:5492:genGenericShift
0203   3C00           01881         SUBLW   0x00
                      01882 ;; >>> /home/sdcc-builder/build/sdcc-build/orig/sdcc/src/pic14/gen.c:5494:genGenericShift
0204   1903           01883         BTFSC   STATUS,2
                      01884 ;; >>> /home/sdcc-builder/build/sdcc-build/orig/sdcc/src/pic14/gen.c:5495:genGenericShift
gpasm-1.4.0 #1106 (Oct  6 2014) obj\Debug\gpi   12-6-2023  18:52:19         PAGE 37


LOC    OBJECT CODE    LINE  SOURCE TEXT
  VALUE

                      01885 ;; ***  popGetLabel  key=33, label offset 45
0205   2???           01886         GOTO    _00178_DS_
                      01887 ;;; /home/sdcc-builder/build/sdcc-build/orig/sdcc/src/pic14/gen.c:5369:genMultiAsm *{*
                      01888 ;; ***  genMultiAsm  5370
                      01889 ;; >>> /home/sdcc-builder/build/sdcc-build/orig/sdcc/src/pic14/gen.c:5387:genMultiAsm
                      01890 ;;      1109 rIdx = r0x104F 
0206                  01891 _00177_DS_
0206   ???? ????      01892         BANKSEL r0x1009
0208   0D??           01893         RLF     r0x1009,F
                      01894 ;; >>> /home/sdcc-builder/build/sdcc-build/orig/sdcc/src/pic14/gen.c:5501:genGenericShift
0209   3E01           01895         ADDLW   0x01
                      01896 ;; >>> /home/sdcc-builder/build/sdcc-build/orig/sdcc/src/pic14/gen.c:5502:genGenericShift
020A   1C03           01897         BTFSS   STATUS,0
                      01898 ;; >>> /home/sdcc-builder/build/sdcc-build/orig/sdcc/src/pic14/gen.c:5503:genGenericShift
                      01899 ;; ***  popGetLabel  key=32, label offset 45
020B   2???           01900         GOTO    _00177_DS_
                      01901 ;;; /home/sdcc-builder/build/sdcc-build/orig/sdcc/src/pic14/gen.c:2316:resultRemat *{*
                      01902 ;;; /home/sdcc-builder/build/sdcc-build/orig/sdcc/src/pic14/gen.c:4220:genOr *{*
                      01903 ;; ***  genOr  4221
                      01904 ;;      694 register type nRegs=1
                      01905 ;;      694 register type nRegs=1
                      01906 ;; ***  aopForSym 315
                      01907 ;;      327 sym->rname = _PORTE, size = 1
                      01908 ;;      line = 4227 result AOP_DIR=_PORTE, size=1, left AOP_REG=r0x104C, size=1, right AOP_REG=r0x104F, 
                            size=1
                      01909 ;;      line = 4253 result AOP_DIR=_PORTE, size=1, left AOP_REG=r0x104C, size=1, right AOP_REG=r0x104F, 
                            size=1
                      01910 ;; >>> /home/sdcc-builder/build/sdcc-build/orig/sdcc/src/pic14/gen.c:4479:genOr
                      01911 ;;      1109 rIdx = r0x104F 
020C                  01912 _00178_DS_
020C   ???? ????      01913         BANKSEL r0x1009
020E   08??           01914         MOVF    r0x1009,W
                      01915 ;; >>> /home/sdcc-builder/build/sdcc-build/orig/sdcc/src/pic14/gen.c:4480:genOr
                      01916 ;;      1109 rIdx = r0x104C 
020F   04??           01917         IORWF   r0x1006,W
                      01918 ;; >>> /home/sdcc-builder/build/sdcc-build/orig/sdcc/src/pic14/gen.c:4481:genOr
                      01919 ;;      1009
                      01920 ;;      1028  _PORTE   offset=0
0210   ???? ????      01921         BANKSEL _PORTE
0212   00??           01922         MOVWF   _PORTE
                      01923 ;;; /home/sdcc-builder/build/sdcc-build/orig/sdcc/src/pic14/gen.c:2316:resultRemat *{*
                      01924 ;;; /home/sdcc-builder/build/sdcc-build/orig/sdcc/src/pic14/gen.c:2760:genLabel *{*
                      01925 ;; ***  genLabel  2763
                      01926 ;;; /home/sdcc-builder/build/sdcc-build/orig/sdcc/src/pic14/gen.c:2316:resultRemat *{*
                      01927 ;;; /home/sdcc-builder/build/sdcc-build/orig/sdcc/src/pic14/gen.c:2528:genEndFunction *{*
                      01928 ;; ***  genEndFunction  2530
0213                  01929 _00152_DS_
                      01930         .line   55; "gpio.c"    }
0213   0008           01931         RETURN  
                      01932 ; exit point of _GPIO_SetPortPinState
                      01933 ;;; /home/sdcc-builder/build/sdcc-build/orig/sdcc/src/pic14/gen.c:7426:genpic14Code *{*
                      01934 
                      01935 ;***
gpasm-1.4.0 #1106 (Oct  6 2014) obj\Debug\gpi   12-6-2023  18:52:19         PAGE 38


LOC    OBJECT CODE    LINE  SOURCE TEXT
  VALUE

                      01936 ;  pBlock Stats: dbName = C
                      01937 ;***
                      01938 ;entry:  _GPIO_Update   ;Function start
                      01939 ; 2 exit points
                      01940 ;has an exit
                      01941 ;; Starting pCode block
                      01942 ;;; /home/sdcc-builder/build/sdcc-build/orig/sdcc/src/pic14/gen.c:2316:resultRemat *{*
                      01943 ;;; /home/sdcc-builder/build/sdcc-build/orig/sdcc/src/pic14/gen.c:2760:genLabel *{*
                      01944 ;; ***  genLabel  2763
                      01945 ;;; /home/sdcc-builder/build/sdcc-build/orig/sdcc/src/pic14/gen.c:2316:resultRemat *{*
                      01946 ;;; /home/sdcc-builder/build/sdcc-build/orig/sdcc/src/pic14/gen.c:2340:genFunction *{*
                      01947 ;; ***  genFunction  2342 curr label offset=4previous max_key=33 
0214                  01948 _GPIO_Update    ;Function start
                      01949 ; 2 exit points
                      01950 ;;; /home/sdcc-builder/build/sdcc-build/orig/sdcc/src/pic14/gen.c:2316:resultRemat *{*
                      01951 ;;; /home/sdcc-builder/build/sdcc-build/orig/sdcc/src/pic14/gen.c:2760:genLabel *{*
                      01952 ;; ***  genLabel  2763
                      01953 ;;; /home/sdcc-builder/build/sdcc-build/orig/sdcc/src/pic14/gen.c:2316:resultRemat *{*
                      01954 ;;; /home/sdcc-builder/build/sdcc-build/orig/sdcc/src/pic14/gen.c:2528:genEndFunction *{*
                      01955 ;; ***  genEndFunction  2530
                      01956         .line   33; "gpio.c"    }
0214   0008           01957         RETURN  
                      01958 ; exit point of _GPIO_Update
                      01959 ;;; /home/sdcc-builder/build/sdcc-build/orig/sdcc/src/pic14/gen.c:7426:genpic14Code *{*
                      01960 
                      01961 ;***
                      01962 ;  pBlock Stats: dbName = C
                      01963 ;***
                      01964 ;entry:  _GPIO_InitPortPin      ;Function start
                      01965 ; 2 exit points
                      01966 ;has an exit
                      01967 ;6 compiler assigned registers:
                      01968 ;   r0x100A
                      01969 ;   STK00
                      01970 ;   r0x100B
                      01971 ;   STK01
                      01972 ;   r0x100C
                      01973 ;   r0x100D
                      01974 ;; Starting pCode block
                      01975 ;;; /home/sdcc-builder/build/sdcc-build/orig/sdcc/src/pic14/gen.c:2316:resultRemat *{*
                      01976 ;;; /home/sdcc-builder/build/sdcc-build/orig/sdcc/src/pic14/gen.c:2760:genLabel *{*
                      01977 ;; ***  genLabel  2763
                      01978 ;;; /home/sdcc-builder/build/sdcc-build/orig/sdcc/src/pic14/gen.c:2316:resultRemat *{*
                      01979 ;;; /home/sdcc-builder/build/sdcc-build/orig/sdcc/src/pic14/gen.c:2340:genFunction *{*
                      01980 ;; ***  genFunction  2342 curr label offset=0previous max_key=0 
0215                  01981 _GPIO_InitPortPin       ;Function start
                      01982 ; 2 exit points
                      01983 ;;; /home/sdcc-builder/build/sdcc-build/orig/sdcc/src/pic14/gen.c:2316:resultRemat *{*
                      01984 ;;; /home/sdcc-builder/build/sdcc-build/orig/sdcc/src/pic14/gen.c:7358:genReceive *{*
                      01985 ;; ***  genReceive  7359
                      01986 ;;      694 register type nRegs=1
                      01987 ;;; /home/sdcc-builder/build/sdcc-build/orig/sdcc/src/pic14/gen.c:1907:assignResultValue *{*
                      01988 ;; ***  assignResultValue  1909
gpasm-1.4.0 #1106 (Oct  6 2014) obj\Debug\gpi   12-6-2023  18:52:19         PAGE 39


LOC    OBJECT CODE    LINE  SOURCE TEXT
  VALUE

                      01989 ;;      line = 1911 result -=-, size=0, left AOP_REG=r0x1048, size=1, right -=-, size=0
                      01990 ;; >>> /home/sdcc-builder/build/sdcc-build/orig/sdcc/src/pic14/gen.c:1393:movwf
                      01991 ;;      1109 rIdx = r0x1048 
                      01992         .line   8; "gpio.c"     void GPIO_InitPortPin(tPort port, unsigned char pin, tPortDirection dire
                            ction)
0215   ???? ????      01993         BANKSEL r0x100A
0217   00??           01994         MOVWF   r0x100A
                      01995 ;;; /home/sdcc-builder/build/sdcc-build/orig/sdcc/src/pic14/gen.c:2316:resultRemat *{*
                      01996 ;;; /home/sdcc-builder/build/sdcc-build/orig/sdcc/src/pic14/gen.c:7358:genReceive *{*
                      01997 ;; ***  genReceive  7359
                      01998 ;;      694 register type nRegs=1
                      01999 ;;; /home/sdcc-builder/build/sdcc-build/orig/sdcc/src/pic14/gen.c:1907:assignResultValue *{*
                      02000 ;; ***  assignResultValue  1909
                      02001 ;;      line = 1911 result -=-, size=0, left AOP_REG=r0x1049, size=1, right -=-, size=0
                      02002 ;; >>> /home/sdcc-builder/build/sdcc-build/orig/sdcc/src/pic14/gen.c:1423:get_returnvalue
                      02003 ;; ***  popRegFromIdx,1042  , rIdx=0x7f
0218   08??           02004         MOVF    STK00,W
                      02005 ;; >>> /home/sdcc-builder/build/sdcc-build/orig/sdcc/src/pic14/gen.c:1393:movwf
                      02006 ;;      1109 rIdx = r0x1049 
0219   00??           02007         MOVWF   r0x100B
                      02008 ;;; /home/sdcc-builder/build/sdcc-build/orig/sdcc/src/pic14/gen.c:2316:resultRemat *{*
                      02009 ;;; /home/sdcc-builder/build/sdcc-build/orig/sdcc/src/pic14/gen.c:7358:genReceive *{*
                      02010 ;; ***  genReceive  7359
                      02011 ;;      694 register type nRegs=1
                      02012 ;;; /home/sdcc-builder/build/sdcc-build/orig/sdcc/src/pic14/gen.c:1907:assignResultValue *{*
                      02013 ;; ***  assignResultValue  1909
                      02014 ;;      line = 1911 result -=-, size=0, left AOP_REG=r0x104A, size=1, right -=-, size=0
                      02015 ;; >>> /home/sdcc-builder/build/sdcc-build/orig/sdcc/src/pic14/gen.c:1423:get_returnvalue
                      02016 ;; ***  popRegFromIdx,1042  , rIdx=0x7e
021A   08??           02017         MOVF    STK01,W
                      02018 ;; >>> /home/sdcc-builder/build/sdcc-build/orig/sdcc/src/pic14/gen.c:1393:movwf
                      02019 ;;      1109 rIdx = r0x104A 
021B   00??           02020         MOVWF   r0x100C
                      02021 ;;; /home/sdcc-builder/build/sdcc-build/orig/sdcc/src/pic14/gen.c:2316:resultRemat *{*
                      02022 ;;; /home/sdcc-builder/build/sdcc-build/orig/sdcc/src/pic14/gen.c:3547:genCmpGt *{*
                      02023 ;; ***  genCmpGt  3548
                      02024 ;;      694 register type nRegs=1
                      02025 ;;; /home/sdcc-builder/build/sdcc-build/orig/sdcc/src/pic14/gen.c:3294:genCmp *{*
                      02026 ;;swapping arguments (AOP_TYPEs 1/2)
                      02027 ;;unsigned compare: left >= lit(0x5=5), size=1
                      02028 ;; >>> /home/sdcc-builder/build/sdcc-build/orig/sdcc/src/pic14/gen.c:3265:pic14_mov2w_regOrLit
                      02029         .line   10; "gpio.c"    switch(port)
021C   3005           02030         MOVLW   0x05
                      02031 ;; >>> /home/sdcc-builder/build/sdcc-build/orig/sdcc/src/pic14/gen.c:3432:genCmp
                      02032 ;;      1109 rIdx = r0x1048 
021D   02??           02033         SUBWF   r0x100A,W
                      02034 ;;; /home/sdcc-builder/build/sdcc-build/orig/sdcc/src/pic14/gen.c:3237:genSkipc *{*
                      02035 ;; >>> /home/sdcc-builder/build/sdcc-build/orig/sdcc/src/pic14/gen.c:3242:genSkipc
021E   1803           02036         BTFSC   STATUS,0
                      02037 ;; >>> /home/sdcc-builder/build/sdcc-build/orig/sdcc/src/pic14/gen.c:3246:genSkipc
                      02038 ;; ***  popGetLabel  key=7, label offset 4
021F   2???           02039         GOTO    _00111_DS_
                      02040 ;;genSkipc:3247: created from rifx:027A5DF4
gpasm-1.4.0 #1106 (Oct  6 2014) obj\Debug\gpi   12-6-2023  18:52:19         PAGE 40


LOC    OBJECT CODE    LINE  SOURCE TEXT
  VALUE

                      02041 ;;; /home/sdcc-builder/build/sdcc-build/orig/sdcc/src/pic14/gen.c:2316:resultRemat *{*
                      02042 ;;; /home/sdcc-builder/build/sdcc-build/orig/sdcc/src/pic14/gen.c:2316:resultRemat *{*
                      02043 ;;; /home/sdcc-builder/build/sdcc-build/orig/sdcc/src/pic14/gen.c:7071:genJumpTab *{*
                      02044 ;; ***  genJumpTab  7072
                      02045 ;;      694 register type nRegs=1
                      02046 ;; >>> /home/sdcc-builder/build/sdcc-build/orig/sdcc/src/pic14/gen.c:7087:genJumpTab
                      02047 ;; ***  popGetLabel  key=13, label offset 4
0220   30??           02048         MOVLW   HIGH(_00117_DS_)
                      02049 ;; >>> /home/sdcc-builder/build/sdcc-build/orig/sdcc/src/pic14/gen.c:7088:genJumpTab
0221   1283 1303      02050         BANKSEL PCLATH
0223   008A           02051         MOVWF   PCLATH
                      02052 ;; >>> /home/sdcc-builder/build/sdcc-build/orig/sdcc/src/pic14/gen.c:7089:genJumpTab
                      02053 ;; ***  popGetLabel  key=13, label offset 4
0224   30??           02054         MOVLW   _00117_DS_
                      02055 ;; >>> /home/sdcc-builder/build/sdcc-build/orig/sdcc/src/pic14/gen.c:7090:genJumpTab
                      02056 ;;      1109 rIdx = r0x1048 
0225   ???? ????      02057         BANKSEL r0x100A
0227   07??           02058         ADDWF   r0x100A,W
                      02059 ;; >>> /home/sdcc-builder/build/sdcc-build/orig/sdcc/src/pic14/gen.c:7091:genJumpTab
0228   1C03           02060         BTFSS   STATUS,0
0229   2???           02061         GOTO    _00003_DS_
                      02062 ;; >>> /home/sdcc-builder/build/sdcc-build/orig/sdcc/src/pic14/gen.c:7092:genJumpTab
022A   1283 1303      02063         BANKSEL PCLATH
022C   0A8A           02064         INCF    PCLATH,F
                      02065 ;; >>> /home/sdcc-builder/build/sdcc-build/orig/sdcc/src/pic14/gen.c:7093:genJumpTab
022D                  02066 _00003_DS_
022D   0082           02067         MOVWF   PCL
                      02068 ;; >>> /home/sdcc-builder/build/sdcc-build/orig/sdcc/src/pic14/gen.c:7102:genJumpTab
                      02069 ;; ***  popGetLabel  key=1, label offset 4
022E                  02070 _00117_DS_
022E   2???           02071         GOTO    _00105_DS_
                      02072 ;; >>> /home/sdcc-builder/build/sdcc-build/orig/sdcc/src/pic14/gen.c:7102:genJumpTab
                      02073 ;; ***  popGetLabel  key=2, label offset 4
022F   2???           02074         GOTO    _00106_DS_
                      02075 ;; >>> /home/sdcc-builder/build/sdcc-build/orig/sdcc/src/pic14/gen.c:7102:genJumpTab
                      02076 ;; ***  popGetLabel  key=3, label offset 4
0230   2???           02077         GOTO    _00107_DS_
                      02078 ;; >>> /home/sdcc-builder/build/sdcc-build/orig/sdcc/src/pic14/gen.c:7102:genJumpTab
                      02079 ;; ***  popGetLabel  key=4, label offset 4
0231   2???           02080         GOTO    _00108_DS_
                      02081 ;; >>> /home/sdcc-builder/build/sdcc-build/orig/sdcc/src/pic14/gen.c:7102:genJumpTab
                      02082 ;; ***  popGetLabel  key=5, label offset 4
0232   2???           02083         GOTO    _00109_DS_
                      02084 ;;; /home/sdcc-builder/build/sdcc-build/orig/sdcc/src/pic14/gen.c:2316:resultRemat *{*
                      02085 ;;; /home/sdcc-builder/build/sdcc-build/orig/sdcc/src/pic14/gen.c:2760:genLabel *{*
                      02086 ;; ***  genLabel  2763
                      02087 ;;; /home/sdcc-builder/build/sdcc-build/orig/sdcc/src/pic14/gen.c:2316:resultRemat *{*
                      02088 ;;; /home/sdcc-builder/build/sdcc-build/orig/sdcc/src/pic14/gen.c:5418:genGenericShift *{*
                      02089 ;; ***  genGenericShift  5421
                      02090 ;;      694 register type nRegs=1
                      02091 ;;      694 register type nRegs=1
                      02092 ;; ***  mov2w  1381  offset=0
                      02093 ;; >>> /home/sdcc-builder/build/sdcc-build/orig/sdcc/src/pic14/gen.c:1384:mov2w
gpasm-1.4.0 #1106 (Oct  6 2014) obj\Debug\gpi   12-6-2023  18:52:19         PAGE 41


LOC    OBJECT CODE    LINE  SOURCE TEXT
  VALUE

0233                  02094 _00105_DS_
                      02095         .line   13; "gpio.c"    SET_REGISTER_PIN(TRISA, pin, direction);
0233   3001           02096         MOVLW   0x01
                      02097 ;; >>> /home/sdcc-builder/build/sdcc-build/orig/sdcc/src/pic14/gen.c:1393:movwf
                      02098 ;;      1109 rIdx = r0x1048 
0234   ???? ????      02099         BANKSEL r0x100A
0236   00??           02100         MOVWF   r0x100A
                      02101 ;; ***  addSign  861
                      02102 ;;; /home/sdcc-builder/build/sdcc-build/orig/sdcc/src/pic14/genarith.c:862:addSign *{*
                      02103 ;; ***  mov2w  1381  offset=0
                      02104 ;; >>> /home/sdcc-builder/build/sdcc-build/orig/sdcc/src/pic14/gen.c:1386:mov2w
                      02105 ;;      1109 rIdx = r0x1049 
0237   08??           02106         MOVF    r0x100B,W
                      02107 ;; >>> /home/sdcc-builder/build/sdcc-build/orig/sdcc/src/pic14/gen.c:5492:genGenericShift
0238   3C00           02108         SUBLW   0x00
                      02109 ;; >>> /home/sdcc-builder/build/sdcc-build/orig/sdcc/src/pic14/gen.c:5494:genGenericShift
0239   1903           02110         BTFSC   STATUS,2
                      02111 ;; >>> /home/sdcc-builder/build/sdcc-build/orig/sdcc/src/pic14/gen.c:5495:genGenericShift
                      02112 ;; ***  popGetLabel  key=15, label offset 4
023A   2???           02113         GOTO    _00119_DS_
                      02114 ;;; /home/sdcc-builder/build/sdcc-build/orig/sdcc/src/pic14/gen.c:5369:genMultiAsm *{*
                      02115 ;; ***  genMultiAsm  5370
                      02116 ;; >>> /home/sdcc-builder/build/sdcc-build/orig/sdcc/src/pic14/gen.c:5387:genMultiAsm
                      02117 ;;      1109 rIdx = r0x1048 
023B                  02118 _00118_DS_
023B   ???? ????      02119         BANKSEL r0x100A
023D   0D??           02120         RLF     r0x100A,F
                      02121 ;; >>> /home/sdcc-builder/build/sdcc-build/orig/sdcc/src/pic14/gen.c:5501:genGenericShift
023E   3E01           02122         ADDLW   0x01
                      02123 ;; >>> /home/sdcc-builder/build/sdcc-build/orig/sdcc/src/pic14/gen.c:5502:genGenericShift
023F   1C03           02124         BTFSS   STATUS,0
                      02125 ;; >>> /home/sdcc-builder/build/sdcc-build/orig/sdcc/src/pic14/gen.c:5503:genGenericShift
                      02126 ;; ***  popGetLabel  key=14, label offset 4
0240   2???           02127         GOTO    _00118_DS_
                      02128 ;;; /home/sdcc-builder/build/sdcc-build/orig/sdcc/src/pic14/gen.c:2316:resultRemat *{*
                      02129 ;;; /home/sdcc-builder/build/sdcc-build/orig/sdcc/src/pic14/gen.c:1609:genCpl *{*
                      02130 ;; ***  genCpl  1611
                      02131 ;;      694 register type nRegs=1
                      02132 ;;      694 register type nRegs=1
                      02133 ;; >>> /home/sdcc-builder/build/sdcc-build/orig/sdcc/src/pic14/gen.c:1631:genCpl
                      02134 ;;      1109 rIdx = r0x1048 
0241                  02135 _00119_DS_
0241   ???? ????      02136         BANKSEL r0x100A
0243   09??           02137         COMF    r0x100A,F
0244   ???? ????      02138         BANKSEL _TRISA
0246   08??           02139         MOVF    _TRISA,W
                      02140 ;; >>> /home/sdcc-builder/build/sdcc-build/orig/sdcc/src/pic14/gen.c:4138:genAnd
                      02141 ;;      1109 rIdx = r0x1048 
0247   ???? ????      02142         BANKSEL r0x100A
0249   05??           02143         ANDWF   r0x100A,F
                      02144 ;;; /home/sdcc-builder/build/sdcc-build/orig/sdcc/src/pic14/gen.c:2316:resultRemat *{*
                      02145 ;;; /home/sdcc-builder/build/sdcc-build/orig/sdcc/src/pic14/gen.c:5418:genGenericShift *{*
                      02146 ;; ***  genGenericShift  5421
gpasm-1.4.0 #1106 (Oct  6 2014) obj\Debug\gpi   12-6-2023  18:52:19         PAGE 42


LOC    OBJECT CODE    LINE  SOURCE TEXT
  VALUE

                      02147 ;;      694 register type nRegs=1
                      02148 ;;      694 register type nRegs=1
                      02149 ;;      694 register type nRegs=1
                      02150 ;; ***  mov2w  1381  offset=0
                      02151 ;; >>> /home/sdcc-builder/build/sdcc-build/orig/sdcc/src/pic14/gen.c:1386:mov2w
                      02152 ;;      1109 rIdx = r0x104A 
024A   08??           02153         MOVF    r0x100C,W
                      02154 ;; >>> /home/sdcc-builder/build/sdcc-build/orig/sdcc/src/pic14/gen.c:1393:movwf
                      02155 ;;      1109 rIdx = r0x104B 
024B   00??           02156         MOVWF   r0x100D
                      02157 ;; ***  addSign  861
                      02158 ;;; /home/sdcc-builder/build/sdcc-build/orig/sdcc/src/pic14/genarith.c:862:addSign *{*
                      02159 ;; ***  mov2w  1381  offset=0
                      02160 ;; >>> /home/sdcc-builder/build/sdcc-build/orig/sdcc/src/pic14/gen.c:1386:mov2w
                      02161 ;;      1109 rIdx = r0x1049 
024C   08??           02162         MOVF    r0x100B,W
                      02163 ;; >>> /home/sdcc-builder/build/sdcc-build/orig/sdcc/src/pic14/gen.c:5492:genGenericShift
024D   3C00           02164         SUBLW   0x00
                      02165 ;; >>> /home/sdcc-builder/build/sdcc-build/orig/sdcc/src/pic14/gen.c:5494:genGenericShift
024E   1903           02166         BTFSC   STATUS,2
                      02167 ;; >>> /home/sdcc-builder/build/sdcc-build/orig/sdcc/src/pic14/gen.c:5495:genGenericShift
                      02168 ;; ***  popGetLabel  key=17, label offset 4
024F   2???           02169         GOTO    _00121_DS_
                      02170 ;;; /home/sdcc-builder/build/sdcc-build/orig/sdcc/src/pic14/gen.c:5369:genMultiAsm *{*
                      02171 ;; ***  genMultiAsm  5370
                      02172 ;; >>> /home/sdcc-builder/build/sdcc-build/orig/sdcc/src/pic14/gen.c:5387:genMultiAsm
                      02173 ;;      1109 rIdx = r0x104B 
0250                  02174 _00120_DS_
0250   ???? ????      02175         BANKSEL r0x100D
0252   0D??           02176         RLF     r0x100D,F
                      02177 ;; >>> /home/sdcc-builder/build/sdcc-build/orig/sdcc/src/pic14/gen.c:5501:genGenericShift
0253   3E01           02178         ADDLW   0x01
                      02179 ;; >>> /home/sdcc-builder/build/sdcc-build/orig/sdcc/src/pic14/gen.c:5502:genGenericShift
0254   1C03           02180         BTFSS   STATUS,0
                      02181 ;; >>> /home/sdcc-builder/build/sdcc-build/orig/sdcc/src/pic14/gen.c:5503:genGenericShift
                      02182 ;; ***  popGetLabel  key=16, label offset 4
0255   2???           02183         GOTO    _00120_DS_
                      02184 ;;; /home/sdcc-builder/build/sdcc-build/orig/sdcc/src/pic14/gen.c:2316:resultRemat *{*
                      02185 ;;; /home/sdcc-builder/build/sdcc-build/orig/sdcc/src/pic14/gen.c:4220:genOr *{*
                      02186 ;; ***  genOr  4221
                      02187 ;;      694 register type nRegs=1
                      02188 ;;      694 register type nRegs=1
                      02189 ;; ***  aopForSym 315
                      02190 ;;      327 sym->rname = _TRISA, size = 1
                      02191 ;;      line = 4227 result AOP_DIR=_TRISA, size=1, left AOP_REG=r0x1048, size=1, right AOP_REG=r0x104B, 
                            size=1
                      02192 ;;      line = 4253 result AOP_DIR=_TRISA, size=1, left AOP_REG=r0x1048, size=1, right AOP_REG=r0x104B, 
                            size=1
                      02193 ;; >>> /home/sdcc-builder/build/sdcc-build/orig/sdcc/src/pic14/gen.c:4479:genOr
                      02194 ;;      1109 rIdx = r0x104B 
0256                  02195 _00121_DS_
0256   ???? ????      02196         BANKSEL r0x100D
0258   08??           02197         MOVF    r0x100D,W
gpasm-1.4.0 #1106 (Oct  6 2014) obj\Debug\gpi   12-6-2023  18:52:19         PAGE 43


LOC    OBJECT CODE    LINE  SOURCE TEXT
  VALUE

                      02198 ;; >>> /home/sdcc-builder/build/sdcc-build/orig/sdcc/src/pic14/gen.c:4480:genOr
                      02199 ;;      1109 rIdx = r0x1048 
0259   04??           02200         IORWF   r0x100A,W
                      02201 ;; >>> /home/sdcc-builder/build/sdcc-build/orig/sdcc/src/pic14/gen.c:4481:genOr
                      02202 ;;      1009
                      02203 ;;      1028  _TRISA   offset=0
025A   ???? ????      02204         BANKSEL _TRISA
025C   00??           02205         MOVWF   _TRISA
                      02206 ;;; /home/sdcc-builder/build/sdcc-build/orig/sdcc/src/pic14/gen.c:2316:resultRemat *{*
                      02207 ;;; /home/sdcc-builder/build/sdcc-build/orig/sdcc/src/pic14/gen.c:2778:genGoto *{*
                      02208 ;; >>> /home/sdcc-builder/build/sdcc-build/orig/sdcc/src/pic14/gen.c:2780:genGoto
                      02209 ;; ***  popGetLabel  key=7, label offset 4
                      02210         .line   14; "gpio.c"    break;
025D   2???           02211         GOTO    _00111_DS_
                      02212 ;;; /home/sdcc-builder/build/sdcc-build/orig/sdcc/src/pic14/gen.c:2316:resultRemat *{*
                      02213 ;;; /home/sdcc-builder/build/sdcc-build/orig/sdcc/src/pic14/gen.c:2760:genLabel *{*
                      02214 ;; ***  genLabel  2763
                      02215 ;;; /home/sdcc-builder/build/sdcc-build/orig/sdcc/src/pic14/gen.c:2316:resultRemat *{*
                      02216 ;;; /home/sdcc-builder/build/sdcc-build/orig/sdcc/src/pic14/gen.c:5418:genGenericShift *{*
                      02217 ;; ***  genGenericShift  5421
                      02218 ;;      694 register type nRegs=1
                      02219 ;;      694 register type nRegs=1
                      02220 ;; ***  mov2w  1381  offset=0
                      02221 ;; >>> /home/sdcc-builder/build/sdcc-build/orig/sdcc/src/pic14/gen.c:1384:mov2w
025E                  02222 _00106_DS_
                      02223         .line   16; "gpio.c"    SET_REGISTER_PIN(TRISB, pin, direction);
025E   3001           02224         MOVLW   0x01
                      02225 ;; >>> /home/sdcc-builder/build/sdcc-build/orig/sdcc/src/pic14/gen.c:1393:movwf
                      02226 ;;      1109 rIdx = r0x1048 
025F   ???? ????      02227         BANKSEL r0x100A
0261   00??           02228         MOVWF   r0x100A
                      02229 ;; ***  addSign  861
                      02230 ;;; /home/sdcc-builder/build/sdcc-build/orig/sdcc/src/pic14/genarith.c:862:addSign *{*
                      02231 ;; ***  mov2w  1381  offset=0
                      02232 ;; >>> /home/sdcc-builder/build/sdcc-build/orig/sdcc/src/pic14/gen.c:1386:mov2w
                      02233 ;;      1109 rIdx = r0x1049 
0262   08??           02234         MOVF    r0x100B,W
                      02235 ;; >>> /home/sdcc-builder/build/sdcc-build/orig/sdcc/src/pic14/gen.c:5492:genGenericShift
0263   3C00           02236         SUBLW   0x00
                      02237 ;; >>> /home/sdcc-builder/build/sdcc-build/orig/sdcc/src/pic14/gen.c:5494:genGenericShift
0264   1903           02238         BTFSC   STATUS,2
                      02239 ;; >>> /home/sdcc-builder/build/sdcc-build/orig/sdcc/src/pic14/gen.c:5495:genGenericShift
                      02240 ;; ***  popGetLabel  key=19, label offset 4
0265   2???           02241         GOTO    _00123_DS_
                      02242 ;;; /home/sdcc-builder/build/sdcc-build/orig/sdcc/src/pic14/gen.c:5369:genMultiAsm *{*
                      02243 ;; ***  genMultiAsm  5370
                      02244 ;; >>> /home/sdcc-builder/build/sdcc-build/orig/sdcc/src/pic14/gen.c:5387:genMultiAsm
                      02245 ;;      1109 rIdx = r0x1048 
0266                  02246 _00122_DS_
0266   ???? ????      02247         BANKSEL r0x100A
0268   0D??           02248         RLF     r0x100A,F
                      02249 ;; >>> /home/sdcc-builder/build/sdcc-build/orig/sdcc/src/pic14/gen.c:5501:genGenericShift
0269   3E01           02250         ADDLW   0x01
gpasm-1.4.0 #1106 (Oct  6 2014) obj\Debug\gpi   12-6-2023  18:52:19         PAGE 44


LOC    OBJECT CODE    LINE  SOURCE TEXT
  VALUE

                      02251 ;; >>> /home/sdcc-builder/build/sdcc-build/orig/sdcc/src/pic14/gen.c:5502:genGenericShift
026A   1C03           02252         BTFSS   STATUS,0
                      02253 ;; >>> /home/sdcc-builder/build/sdcc-build/orig/sdcc/src/pic14/gen.c:5503:genGenericShift
                      02254 ;; ***  popGetLabel  key=18, label offset 4
026B   2???           02255         GOTO    _00122_DS_
                      02256 ;;; /home/sdcc-builder/build/sdcc-build/orig/sdcc/src/pic14/gen.c:2316:resultRemat *{*
                      02257 ;;; /home/sdcc-builder/build/sdcc-build/orig/sdcc/src/pic14/gen.c:1609:genCpl *{*
                      02258 ;; ***  genCpl  1611
                      02259 ;;      694 register type nRegs=1
                      02260 ;;      694 register type nRegs=1
                      02261 ;; >>> /home/sdcc-builder/build/sdcc-build/orig/sdcc/src/pic14/gen.c:1631:genCpl
                      02262 ;;      1109 rIdx = r0x1048 
026C                  02263 _00123_DS_
026C   ???? ????      02264         BANKSEL r0x100A
026E   09??           02265         COMF    r0x100A,F
026F   ???? ????      02266         BANKSEL _TRISB
0271   08??           02267         MOVF    _TRISB,W
                      02268 ;; >>> /home/sdcc-builder/build/sdcc-build/orig/sdcc/src/pic14/gen.c:4138:genAnd
                      02269 ;;      1109 rIdx = r0x1048 
0272   ???? ????      02270         BANKSEL r0x100A
0274   05??           02271         ANDWF   r0x100A,F
                      02272 ;;; /home/sdcc-builder/build/sdcc-build/orig/sdcc/src/pic14/gen.c:2316:resultRemat *{*
                      02273 ;;; /home/sdcc-builder/build/sdcc-build/orig/sdcc/src/pic14/gen.c:5418:genGenericShift *{*
                      02274 ;; ***  genGenericShift  5421
                      02275 ;;      694 register type nRegs=1
                      02276 ;;      694 register type nRegs=1
                      02277 ;;      694 register type nRegs=1
                      02278 ;; ***  mov2w  1381  offset=0
                      02279 ;; >>> /home/sdcc-builder/build/sdcc-build/orig/sdcc/src/pic14/gen.c:1386:mov2w
                      02280 ;;      1109 rIdx = r0x104A 
0275   08??           02281         MOVF    r0x100C,W
                      02282 ;; >>> /home/sdcc-builder/build/sdcc-build/orig/sdcc/src/pic14/gen.c:1393:movwf
                      02283 ;;      1109 rIdx = r0x104B 
0276   00??           02284         MOVWF   r0x100D
                      02285 ;; ***  addSign  861
                      02286 ;;; /home/sdcc-builder/build/sdcc-build/orig/sdcc/src/pic14/genarith.c:862:addSign *{*
                      02287 ;; ***  mov2w  1381  offset=0
                      02288 ;; >>> /home/sdcc-builder/build/sdcc-build/orig/sdcc/src/pic14/gen.c:1386:mov2w
                      02289 ;;      1109 rIdx = r0x1049 
0277   08??           02290         MOVF    r0x100B,W
                      02291 ;; >>> /home/sdcc-builder/build/sdcc-build/orig/sdcc/src/pic14/gen.c:5492:genGenericShift
0278   3C00           02292         SUBLW   0x00
                      02293 ;; >>> /home/sdcc-builder/build/sdcc-build/orig/sdcc/src/pic14/gen.c:5494:genGenericShift
0279   1903           02294         BTFSC   STATUS,2
                      02295 ;; >>> /home/sdcc-builder/build/sdcc-build/orig/sdcc/src/pic14/gen.c:5495:genGenericShift
                      02296 ;; ***  popGetLabel  key=21, label offset 4
027A   2???           02297         GOTO    _00125_DS_
                      02298 ;;; /home/sdcc-builder/build/sdcc-build/orig/sdcc/src/pic14/gen.c:5369:genMultiAsm *{*
                      02299 ;; ***  genMultiAsm  5370
                      02300 ;; >>> /home/sdcc-builder/build/sdcc-build/orig/sdcc/src/pic14/gen.c:5387:genMultiAsm
                      02301 ;;      1109 rIdx = r0x104B 
027B                  02302 _00124_DS_
027B   ???? ????      02303         BANKSEL r0x100D
gpasm-1.4.0 #1106 (Oct  6 2014) obj\Debug\gpi   12-6-2023  18:52:19         PAGE 45


LOC    OBJECT CODE    LINE  SOURCE TEXT
  VALUE

027D   0D??           02304         RLF     r0x100D,F
                      02305 ;; >>> /home/sdcc-builder/build/sdcc-build/orig/sdcc/src/pic14/gen.c:5501:genGenericShift
027E   3E01           02306         ADDLW   0x01
                      02307 ;; >>> /home/sdcc-builder/build/sdcc-build/orig/sdcc/src/pic14/gen.c:5502:genGenericShift
027F   1C03           02308         BTFSS   STATUS,0
                      02309 ;; >>> /home/sdcc-builder/build/sdcc-build/orig/sdcc/src/pic14/gen.c:5503:genGenericShift
                      02310 ;; ***  popGetLabel  key=20, label offset 4
0280   2???           02311         GOTO    _00124_DS_
                      02312 ;;; /home/sdcc-builder/build/sdcc-build/orig/sdcc/src/pic14/gen.c:2316:resultRemat *{*
                      02313 ;;; /home/sdcc-builder/build/sdcc-build/orig/sdcc/src/pic14/gen.c:4220:genOr *{*
                      02314 ;; ***  genOr  4221
                      02315 ;;      694 register type nRegs=1
                      02316 ;;      694 register type nRegs=1
                      02317 ;; ***  aopForSym 315
                      02318 ;;      327 sym->rname = _TRISB, size = 1
                      02319 ;;      line = 4227 result AOP_DIR=_TRISB, size=1, left AOP_REG=r0x1048, size=1, right AOP_REG=r0x104B, 
                            size=1
                      02320 ;;      line = 4253 result AOP_DIR=_TRISB, size=1, left AOP_REG=r0x1048, size=1, right AOP_REG=r0x104B, 
                            size=1
                      02321 ;; >>> /home/sdcc-builder/build/sdcc-build/orig/sdcc/src/pic14/gen.c:4479:genOr
                      02322 ;;      1109 rIdx = r0x104B 
0281                  02323 _00125_DS_
0281   ???? ????      02324         BANKSEL r0x100D
0283   08??           02325         MOVF    r0x100D,W
                      02326 ;; >>> /home/sdcc-builder/build/sdcc-build/orig/sdcc/src/pic14/gen.c:4480:genOr
                      02327 ;;      1109 rIdx = r0x1048 
0284   04??           02328         IORWF   r0x100A,W
                      02329 ;; >>> /home/sdcc-builder/build/sdcc-build/orig/sdcc/src/pic14/gen.c:4481:genOr
                      02330 ;;      1009
                      02331 ;;      1028  _TRISB   offset=0
0285   ???? ????      02332         BANKSEL _TRISB
0287   00??           02333         MOVWF   _TRISB
                      02334 ;;; /home/sdcc-builder/build/sdcc-build/orig/sdcc/src/pic14/gen.c:2316:resultRemat *{*
                      02335 ;;; /home/sdcc-builder/build/sdcc-build/orig/sdcc/src/pic14/gen.c:2778:genGoto *{*
                      02336 ;; >>> /home/sdcc-builder/build/sdcc-build/orig/sdcc/src/pic14/gen.c:2780:genGoto
                      02337 ;; ***  popGetLabel  key=7, label offset 4
                      02338         .line   17; "gpio.c"    break;
0288   2???           02339         GOTO    _00111_DS_
                      02340 ;;; /home/sdcc-builder/build/sdcc-build/orig/sdcc/src/pic14/gen.c:2316:resultRemat *{*
                      02341 ;;; /home/sdcc-builder/build/sdcc-build/orig/sdcc/src/pic14/gen.c:2760:genLabel *{*
                      02342 ;; ***  genLabel  2763
                      02343 ;;; /home/sdcc-builder/build/sdcc-build/orig/sdcc/src/pic14/gen.c:2316:resultRemat *{*
                      02344 ;;; /home/sdcc-builder/build/sdcc-build/orig/sdcc/src/pic14/gen.c:5418:genGenericShift *{*
                      02345 ;; ***  genGenericShift  5421
                      02346 ;;      694 register type nRegs=1
                      02347 ;;      694 register type nRegs=1
                      02348 ;; ***  mov2w  1381  offset=0
                      02349 ;; >>> /home/sdcc-builder/build/sdcc-build/orig/sdcc/src/pic14/gen.c:1384:mov2w
0289                  02350 _00107_DS_
                      02351         .line   19; "gpio.c"    SET_REGISTER_PIN(TRISC, pin, direction);
0289   3001           02352         MOVLW   0x01
                      02353 ;; >>> /home/sdcc-builder/build/sdcc-build/orig/sdcc/src/pic14/gen.c:1393:movwf
                      02354 ;;      1109 rIdx = r0x1048 
gpasm-1.4.0 #1106 (Oct  6 2014) obj\Debug\gpi   12-6-2023  18:52:19         PAGE 46


LOC    OBJECT CODE    LINE  SOURCE TEXT
  VALUE

028A   ???? ????      02355         BANKSEL r0x100A
028C   00??           02356         MOVWF   r0x100A
                      02357 ;; ***  addSign  861
                      02358 ;;; /home/sdcc-builder/build/sdcc-build/orig/sdcc/src/pic14/genarith.c:862:addSign *{*
                      02359 ;; ***  mov2w  1381  offset=0
                      02360 ;; >>> /home/sdcc-builder/build/sdcc-build/orig/sdcc/src/pic14/gen.c:1386:mov2w
                      02361 ;;      1109 rIdx = r0x1049 
028D   08??           02362         MOVF    r0x100B,W
                      02363 ;; >>> /home/sdcc-builder/build/sdcc-build/orig/sdcc/src/pic14/gen.c:5492:genGenericShift
028E   3C00           02364         SUBLW   0x00
                      02365 ;; >>> /home/sdcc-builder/build/sdcc-build/orig/sdcc/src/pic14/gen.c:5494:genGenericShift
028F   1903           02366         BTFSC   STATUS,2
                      02367 ;; >>> /home/sdcc-builder/build/sdcc-build/orig/sdcc/src/pic14/gen.c:5495:genGenericShift
                      02368 ;; ***  popGetLabel  key=23, label offset 4
0290   2???           02369         GOTO    _00127_DS_
                      02370 ;;; /home/sdcc-builder/build/sdcc-build/orig/sdcc/src/pic14/gen.c:5369:genMultiAsm *{*
                      02371 ;; ***  genMultiAsm  5370
                      02372 ;; >>> /home/sdcc-builder/build/sdcc-build/orig/sdcc/src/pic14/gen.c:5387:genMultiAsm
                      02373 ;;      1109 rIdx = r0x1048 
0291                  02374 _00126_DS_
0291   ???? ????      02375         BANKSEL r0x100A
0293   0D??           02376         RLF     r0x100A,F
                      02377 ;; >>> /home/sdcc-builder/build/sdcc-build/orig/sdcc/src/pic14/gen.c:5501:genGenericShift
0294   3E01           02378         ADDLW   0x01
                      02379 ;; >>> /home/sdcc-builder/build/sdcc-build/orig/sdcc/src/pic14/gen.c:5502:genGenericShift
0295   1C03           02380         BTFSS   STATUS,0
                      02381 ;; >>> /home/sdcc-builder/build/sdcc-build/orig/sdcc/src/pic14/gen.c:5503:genGenericShift
                      02382 ;; ***  popGetLabel  key=22, label offset 4
0296   2???           02383         GOTO    _00126_DS_
                      02384 ;;; /home/sdcc-builder/build/sdcc-build/orig/sdcc/src/pic14/gen.c:2316:resultRemat *{*
                      02385 ;;; /home/sdcc-builder/build/sdcc-build/orig/sdcc/src/pic14/gen.c:1609:genCpl *{*
                      02386 ;; ***  genCpl  1611
                      02387 ;;      694 register type nRegs=1
                      02388 ;;      694 register type nRegs=1
                      02389 ;; >>> /home/sdcc-builder/build/sdcc-build/orig/sdcc/src/pic14/gen.c:1631:genCpl
                      02390 ;;      1109 rIdx = r0x1048 
0297                  02391 _00127_DS_
0297   ???? ????      02392         BANKSEL r0x100A
0299   09??           02393         COMF    r0x100A,F
029A   ???? ????      02394         BANKSEL _TRISC
029C   08??           02395         MOVF    _TRISC,W
                      02396 ;; >>> /home/sdcc-builder/build/sdcc-build/orig/sdcc/src/pic14/gen.c:4138:genAnd
                      02397 ;;      1109 rIdx = r0x1048 
029D   ???? ????      02398         BANKSEL r0x100A
029F   05??           02399         ANDWF   r0x100A,F
                      02400 ;;; /home/sdcc-builder/build/sdcc-build/orig/sdcc/src/pic14/gen.c:2316:resultRemat *{*
                      02401 ;;; /home/sdcc-builder/build/sdcc-build/orig/sdcc/src/pic14/gen.c:5418:genGenericShift *{*
                      02402 ;; ***  genGenericShift  5421
                      02403 ;;      694 register type nRegs=1
                      02404 ;;      694 register type nRegs=1
                      02405 ;;      694 register type nRegs=1
                      02406 ;; ***  mov2w  1381  offset=0
                      02407 ;; >>> /home/sdcc-builder/build/sdcc-build/orig/sdcc/src/pic14/gen.c:1386:mov2w
gpasm-1.4.0 #1106 (Oct  6 2014) obj\Debug\gpi   12-6-2023  18:52:19         PAGE 47


LOC    OBJECT CODE    LINE  SOURCE TEXT
  VALUE

                      02408 ;;      1109 rIdx = r0x104A 
02A0   08??           02409         MOVF    r0x100C,W
                      02410 ;; >>> /home/sdcc-builder/build/sdcc-build/orig/sdcc/src/pic14/gen.c:1393:movwf
                      02411 ;;      1109 rIdx = r0x104B 
02A1   00??           02412         MOVWF   r0x100D
                      02413 ;; ***  addSign  861
                      02414 ;;; /home/sdcc-builder/build/sdcc-build/orig/sdcc/src/pic14/genarith.c:862:addSign *{*
                      02415 ;; ***  mov2w  1381  offset=0
                      02416 ;; >>> /home/sdcc-builder/build/sdcc-build/orig/sdcc/src/pic14/gen.c:1386:mov2w
                      02417 ;;      1109 rIdx = r0x1049 
02A2   08??           02418         MOVF    r0x100B,W
                      02419 ;; >>> /home/sdcc-builder/build/sdcc-build/orig/sdcc/src/pic14/gen.c:5492:genGenericShift
02A3   3C00           02420         SUBLW   0x00
                      02421 ;; >>> /home/sdcc-builder/build/sdcc-build/orig/sdcc/src/pic14/gen.c:5494:genGenericShift
02A4   1903           02422         BTFSC   STATUS,2
                      02423 ;; >>> /home/sdcc-builder/build/sdcc-build/orig/sdcc/src/pic14/gen.c:5495:genGenericShift
                      02424 ;; ***  popGetLabel  key=25, label offset 4
02A5   2???           02425         GOTO    _00129_DS_
                      02426 ;;; /home/sdcc-builder/build/sdcc-build/orig/sdcc/src/pic14/gen.c:5369:genMultiAsm *{*
                      02427 ;; ***  genMultiAsm  5370
                      02428 ;; >>> /home/sdcc-builder/build/sdcc-build/orig/sdcc/src/pic14/gen.c:5387:genMultiAsm
                      02429 ;;      1109 rIdx = r0x104B 
02A6                  02430 _00128_DS_
02A6   ???? ????      02431         BANKSEL r0x100D
02A8   0D??           02432         RLF     r0x100D,F
                      02433 ;; >>> /home/sdcc-builder/build/sdcc-build/orig/sdcc/src/pic14/gen.c:5501:genGenericShift
02A9   3E01           02434         ADDLW   0x01
                      02435 ;; >>> /home/sdcc-builder/build/sdcc-build/orig/sdcc/src/pic14/gen.c:5502:genGenericShift
02AA   1C03           02436         BTFSS   STATUS,0
                      02437 ;; >>> /home/sdcc-builder/build/sdcc-build/orig/sdcc/src/pic14/gen.c:5503:genGenericShift
                      02438 ;; ***  popGetLabel  key=24, label offset 4
02AB   2???           02439         GOTO    _00128_DS_
                      02440 ;;; /home/sdcc-builder/build/sdcc-build/orig/sdcc/src/pic14/gen.c:2316:resultRemat *{*
                      02441 ;;; /home/sdcc-builder/build/sdcc-build/orig/sdcc/src/pic14/gen.c:4220:genOr *{*
                      02442 ;; ***  genOr  4221
                      02443 ;;      694 register type nRegs=1
                      02444 ;;      694 register type nRegs=1
                      02445 ;; ***  aopForSym 315
                      02446 ;;      327 sym->rname = _TRISC, size = 1
                      02447 ;;      line = 4227 result AOP_DIR=_TRISC, size=1, left AOP_REG=r0x1048, size=1, right AOP_REG=r0x104B, 
                            size=1
                      02448 ;;      line = 4253 result AOP_DIR=_TRISC, size=1, left AOP_REG=r0x1048, size=1, right AOP_REG=r0x104B, 
                            size=1
                      02449 ;; >>> /home/sdcc-builder/build/sdcc-build/orig/sdcc/src/pic14/gen.c:4479:genOr
                      02450 ;;      1109 rIdx = r0x104B 
02AC                  02451 _00129_DS_
02AC   ???? ????      02452         BANKSEL r0x100D
02AE   08??           02453         MOVF    r0x100D,W
                      02454 ;; >>> /home/sdcc-builder/build/sdcc-build/orig/sdcc/src/pic14/gen.c:4480:genOr
                      02455 ;;      1109 rIdx = r0x1048 
02AF   04??           02456         IORWF   r0x100A,W
                      02457 ;; >>> /home/sdcc-builder/build/sdcc-build/orig/sdcc/src/pic14/gen.c:4481:genOr
                      02458 ;;      1009
gpasm-1.4.0 #1106 (Oct  6 2014) obj\Debug\gpi   12-6-2023  18:52:19         PAGE 48


LOC    OBJECT CODE    LINE  SOURCE TEXT
  VALUE

                      02459 ;;      1028  _TRISC   offset=0
02B0   ???? ????      02460         BANKSEL _TRISC
02B2   00??           02461         MOVWF   _TRISC
                      02462 ;;; /home/sdcc-builder/build/sdcc-build/orig/sdcc/src/pic14/gen.c:2316:resultRemat *{*
                      02463 ;;; /home/sdcc-builder/build/sdcc-build/orig/sdcc/src/pic14/gen.c:2778:genGoto *{*
                      02464 ;; >>> /home/sdcc-builder/build/sdcc-build/orig/sdcc/src/pic14/gen.c:2780:genGoto
                      02465 ;; ***  popGetLabel  key=7, label offset 4
                      02466         .line   20; "gpio.c"    break;
02B3   2???           02467         GOTO    _00111_DS_
                      02468 ;;; /home/sdcc-builder/build/sdcc-build/orig/sdcc/src/pic14/gen.c:2316:resultRemat *{*
                      02469 ;;; /home/sdcc-builder/build/sdcc-build/orig/sdcc/src/pic14/gen.c:2760:genLabel *{*
                      02470 ;; ***  genLabel  2763
                      02471 ;;; /home/sdcc-builder/build/sdcc-build/orig/sdcc/src/pic14/gen.c:2316:resultRemat *{*
                      02472 ;;; /home/sdcc-builder/build/sdcc-build/orig/sdcc/src/pic14/gen.c:5418:genGenericShift *{*
                      02473 ;; ***  genGenericShift  5421
                      02474 ;;      694 register type nRegs=1
                      02475 ;;      694 register type nRegs=1
                      02476 ;; ***  mov2w  1381  offset=0
                      02477 ;; >>> /home/sdcc-builder/build/sdcc-build/orig/sdcc/src/pic14/gen.c:1384:mov2w
02B4                  02478 _00108_DS_
                      02479         .line   22; "gpio.c"    SET_REGISTER_PIN(TRISD, pin, direction);
02B4   3001           02480         MOVLW   0x01
                      02481 ;; >>> /home/sdcc-builder/build/sdcc-build/orig/sdcc/src/pic14/gen.c:1393:movwf
                      02482 ;;      1109 rIdx = r0x1048 
02B5   ???? ????      02483         BANKSEL r0x100A
02B7   00??           02484         MOVWF   r0x100A
                      02485 ;; ***  addSign  861
                      02486 ;;; /home/sdcc-builder/build/sdcc-build/orig/sdcc/src/pic14/genarith.c:862:addSign *{*
                      02487 ;; ***  mov2w  1381  offset=0
                      02488 ;; >>> /home/sdcc-builder/build/sdcc-build/orig/sdcc/src/pic14/gen.c:1386:mov2w
                      02489 ;;      1109 rIdx = r0x1049 
02B8   08??           02490         MOVF    r0x100B,W
                      02491 ;; >>> /home/sdcc-builder/build/sdcc-build/orig/sdcc/src/pic14/gen.c:5492:genGenericShift
02B9   3C00           02492         SUBLW   0x00
                      02493 ;; >>> /home/sdcc-builder/build/sdcc-build/orig/sdcc/src/pic14/gen.c:5494:genGenericShift
02BA   1903           02494         BTFSC   STATUS,2
                      02495 ;; >>> /home/sdcc-builder/build/sdcc-build/orig/sdcc/src/pic14/gen.c:5495:genGenericShift
                      02496 ;; ***  popGetLabel  key=27, label offset 4
02BB   2???           02497         GOTO    _00131_DS_
                      02498 ;;; /home/sdcc-builder/build/sdcc-build/orig/sdcc/src/pic14/gen.c:5369:genMultiAsm *{*
                      02499 ;; ***  genMultiAsm  5370
                      02500 ;; >>> /home/sdcc-builder/build/sdcc-build/orig/sdcc/src/pic14/gen.c:5387:genMultiAsm
                      02501 ;;      1109 rIdx = r0x1048 
02BC                  02502 _00130_DS_
02BC   ???? ????      02503         BANKSEL r0x100A
02BE   0D??           02504         RLF     r0x100A,F
                      02505 ;; >>> /home/sdcc-builder/build/sdcc-build/orig/sdcc/src/pic14/gen.c:5501:genGenericShift
02BF   3E01           02506         ADDLW   0x01
                      02507 ;; >>> /home/sdcc-builder/build/sdcc-build/orig/sdcc/src/pic14/gen.c:5502:genGenericShift
02C0   1C03           02508         BTFSS   STATUS,0
                      02509 ;; >>> /home/sdcc-builder/build/sdcc-build/orig/sdcc/src/pic14/gen.c:5503:genGenericShift
                      02510 ;; ***  popGetLabel  key=26, label offset 4
02C1   2???           02511         GOTO    _00130_DS_
gpasm-1.4.0 #1106 (Oct  6 2014) obj\Debug\gpi   12-6-2023  18:52:19         PAGE 49


LOC    OBJECT CODE    LINE  SOURCE TEXT
  VALUE

                      02512 ;;; /home/sdcc-builder/build/sdcc-build/orig/sdcc/src/pic14/gen.c:2316:resultRemat *{*
                      02513 ;;; /home/sdcc-builder/build/sdcc-build/orig/sdcc/src/pic14/gen.c:1609:genCpl *{*
                      02514 ;; ***  genCpl  1611
                      02515 ;;      694 register type nRegs=1
                      02516 ;;      694 register type nRegs=1
                      02517 ;; >>> /home/sdcc-builder/build/sdcc-build/orig/sdcc/src/pic14/gen.c:1631:genCpl
                      02518 ;;      1109 rIdx = r0x1048 
02C2                  02519 _00131_DS_
02C2   ???? ????      02520         BANKSEL r0x100A
02C4   09??           02521         COMF    r0x100A,F
02C5   ???? ????      02522         BANKSEL _TRISD
02C7   08??           02523         MOVF    _TRISD,W
                      02524 ;; >>> /home/sdcc-builder/build/sdcc-build/orig/sdcc/src/pic14/gen.c:4138:genAnd
                      02525 ;;      1109 rIdx = r0x1048 
02C8   ???? ????      02526         BANKSEL r0x100A
02CA   05??           02527         ANDWF   r0x100A,F
                      02528 ;;; /home/sdcc-builder/build/sdcc-build/orig/sdcc/src/pic14/gen.c:2316:resultRemat *{*
                      02529 ;;; /home/sdcc-builder/build/sdcc-build/orig/sdcc/src/pic14/gen.c:5418:genGenericShift *{*
                      02530 ;; ***  genGenericShift  5421
                      02531 ;;      694 register type nRegs=1
                      02532 ;;      694 register type nRegs=1
                      02533 ;;      694 register type nRegs=1
                      02534 ;; ***  mov2w  1381  offset=0
                      02535 ;; >>> /home/sdcc-builder/build/sdcc-build/orig/sdcc/src/pic14/gen.c:1386:mov2w
                      02536 ;;      1109 rIdx = r0x104A 
02CB   08??           02537         MOVF    r0x100C,W
                      02538 ;; >>> /home/sdcc-builder/build/sdcc-build/orig/sdcc/src/pic14/gen.c:1393:movwf
                      02539 ;;      1109 rIdx = r0x104B 
02CC   00??           02540         MOVWF   r0x100D
                      02541 ;; ***  addSign  861
                      02542 ;;; /home/sdcc-builder/build/sdcc-build/orig/sdcc/src/pic14/genarith.c:862:addSign *{*
                      02543 ;; ***  mov2w  1381  offset=0
                      02544 ;; >>> /home/sdcc-builder/build/sdcc-build/orig/sdcc/src/pic14/gen.c:1386:mov2w
                      02545 ;;      1109 rIdx = r0x1049 
02CD   08??           02546         MOVF    r0x100B,W
                      02547 ;; >>> /home/sdcc-builder/build/sdcc-build/orig/sdcc/src/pic14/gen.c:5492:genGenericShift
02CE   3C00           02548         SUBLW   0x00
                      02549 ;; >>> /home/sdcc-builder/build/sdcc-build/orig/sdcc/src/pic14/gen.c:5494:genGenericShift
02CF   1903           02550         BTFSC   STATUS,2
                      02551 ;; >>> /home/sdcc-builder/build/sdcc-build/orig/sdcc/src/pic14/gen.c:5495:genGenericShift
                      02552 ;; ***  popGetLabel  key=29, label offset 4
02D0   2???           02553         GOTO    _00133_DS_
                      02554 ;;; /home/sdcc-builder/build/sdcc-build/orig/sdcc/src/pic14/gen.c:5369:genMultiAsm *{*
                      02555 ;; ***  genMultiAsm  5370
                      02556 ;; >>> /home/sdcc-builder/build/sdcc-build/orig/sdcc/src/pic14/gen.c:5387:genMultiAsm
                      02557 ;;      1109 rIdx = r0x104B 
02D1                  02558 _00132_DS_
02D1   ???? ????      02559         BANKSEL r0x100D
02D3   0D??           02560         RLF     r0x100D,F
                      02561 ;; >>> /home/sdcc-builder/build/sdcc-build/orig/sdcc/src/pic14/gen.c:5501:genGenericShift
02D4   3E01           02562         ADDLW   0x01
                      02563 ;; >>> /home/sdcc-builder/build/sdcc-build/orig/sdcc/src/pic14/gen.c:5502:genGenericShift
02D5   1C03           02564         BTFSS   STATUS,0
gpasm-1.4.0 #1106 (Oct  6 2014) obj\Debug\gpi   12-6-2023  18:52:19         PAGE 50


LOC    OBJECT CODE    LINE  SOURCE TEXT
  VALUE

                      02565 ;; >>> /home/sdcc-builder/build/sdcc-build/orig/sdcc/src/pic14/gen.c:5503:genGenericShift
                      02566 ;; ***  popGetLabel  key=28, label offset 4
02D6   2???           02567         GOTO    _00132_DS_
                      02568 ;;; /home/sdcc-builder/build/sdcc-build/orig/sdcc/src/pic14/gen.c:2316:resultRemat *{*
                      02569 ;;; /home/sdcc-builder/build/sdcc-build/orig/sdcc/src/pic14/gen.c:4220:genOr *{*
                      02570 ;; ***  genOr  4221
                      02571 ;;      694 register type nRegs=1
                      02572 ;;      694 register type nRegs=1
                      02573 ;; ***  aopForSym 315
                      02574 ;;      327 sym->rname = _TRISD, size = 1
                      02575 ;;      line = 4227 result AOP_DIR=_TRISD, size=1, left AOP_REG=r0x1048, size=1, right AOP_REG=r0x104B, 
                            size=1
                      02576 ;;      line = 4253 result AOP_DIR=_TRISD, size=1, left AOP_REG=r0x1048, size=1, right AOP_REG=r0x104B, 
                            size=1
                      02577 ;; >>> /home/sdcc-builder/build/sdcc-build/orig/sdcc/src/pic14/gen.c:4479:genOr
                      02578 ;;      1109 rIdx = r0x104B 
02D7                  02579 _00133_DS_
02D7   ???? ????      02580         BANKSEL r0x100D
02D9   08??           02581         MOVF    r0x100D,W
                      02582 ;; >>> /home/sdcc-builder/build/sdcc-build/orig/sdcc/src/pic14/gen.c:4480:genOr
                      02583 ;;      1109 rIdx = r0x1048 
02DA   04??           02584         IORWF   r0x100A,W
                      02585 ;; >>> /home/sdcc-builder/build/sdcc-build/orig/sdcc/src/pic14/gen.c:4481:genOr
                      02586 ;;      1009
                      02587 ;;      1028  _TRISD   offset=0
02DB   ???? ????      02588         BANKSEL _TRISD
02DD   00??           02589         MOVWF   _TRISD
                      02590 ;;; /home/sdcc-builder/build/sdcc-build/orig/sdcc/src/pic14/gen.c:2316:resultRemat *{*
                      02591 ;;; /home/sdcc-builder/build/sdcc-build/orig/sdcc/src/pic14/gen.c:2778:genGoto *{*
                      02592 ;; >>> /home/sdcc-builder/build/sdcc-build/orig/sdcc/src/pic14/gen.c:2780:genGoto
                      02593 ;; ***  popGetLabel  key=7, label offset 4
                      02594         .line   23; "gpio.c"    break;
02DE   2???           02595         GOTO    _00111_DS_
                      02596 ;;; /home/sdcc-builder/build/sdcc-build/orig/sdcc/src/pic14/gen.c:2316:resultRemat *{*
                      02597 ;;; /home/sdcc-builder/build/sdcc-build/orig/sdcc/src/pic14/gen.c:2760:genLabel *{*
                      02598 ;; ***  genLabel  2763
                      02599 ;;; /home/sdcc-builder/build/sdcc-build/orig/sdcc/src/pic14/gen.c:2316:resultRemat *{*
                      02600 ;;; /home/sdcc-builder/build/sdcc-build/orig/sdcc/src/pic14/gen.c:5418:genGenericShift *{*
                      02601 ;; ***  genGenericShift  5421
                      02602 ;;      694 register type nRegs=1
                      02603 ;;      694 register type nRegs=1
                      02604 ;; ***  mov2w  1381  offset=0
                      02605 ;; >>> /home/sdcc-builder/build/sdcc-build/orig/sdcc/src/pic14/gen.c:1384:mov2w
02DF                  02606 _00109_DS_
                      02607         .line   25; "gpio.c"    SET_REGISTER_PIN(TRISE, pin, direction);
02DF   3001           02608         MOVLW   0x01
                      02609 ;; >>> /home/sdcc-builder/build/sdcc-build/orig/sdcc/src/pic14/gen.c:1393:movwf
                      02610 ;;      1109 rIdx = r0x1048 
02E0   ???? ????      02611         BANKSEL r0x100A
02E2   00??           02612         MOVWF   r0x100A
                      02613 ;; ***  addSign  861
                      02614 ;;; /home/sdcc-builder/build/sdcc-build/orig/sdcc/src/pic14/genarith.c:862:addSign *{*
                      02615 ;; ***  mov2w  1381  offset=0
gpasm-1.4.0 #1106 (Oct  6 2014) obj\Debug\gpi   12-6-2023  18:52:19         PAGE 51


LOC    OBJECT CODE    LINE  SOURCE TEXT
  VALUE

                      02616 ;; >>> /home/sdcc-builder/build/sdcc-build/orig/sdcc/src/pic14/gen.c:1386:mov2w
                      02617 ;;      1109 rIdx = r0x1049 
02E3   08??           02618         MOVF    r0x100B,W
                      02619 ;; >>> /home/sdcc-builder/build/sdcc-build/orig/sdcc/src/pic14/gen.c:5492:genGenericShift
02E4   3C00           02620         SUBLW   0x00
                      02621 ;; >>> /home/sdcc-builder/build/sdcc-build/orig/sdcc/src/pic14/gen.c:5494:genGenericShift
02E5   1903           02622         BTFSC   STATUS,2
                      02623 ;; >>> /home/sdcc-builder/build/sdcc-build/orig/sdcc/src/pic14/gen.c:5495:genGenericShift
                      02624 ;; ***  popGetLabel  key=31, label offset 4
02E6   2???           02625         GOTO    _00135_DS_
                      02626 ;;; /home/sdcc-builder/build/sdcc-build/orig/sdcc/src/pic14/gen.c:5369:genMultiAsm *{*
                      02627 ;; ***  genMultiAsm  5370
                      02628 ;; >>> /home/sdcc-builder/build/sdcc-build/orig/sdcc/src/pic14/gen.c:5387:genMultiAsm
                      02629 ;;      1109 rIdx = r0x1048 
02E7                  02630 _00134_DS_
02E7   ???? ????      02631         BANKSEL r0x100A
02E9   0D??           02632         RLF     r0x100A,F
                      02633 ;; >>> /home/sdcc-builder/build/sdcc-build/orig/sdcc/src/pic14/gen.c:5501:genGenericShift
02EA   3E01           02634         ADDLW   0x01
                      02635 ;; >>> /home/sdcc-builder/build/sdcc-build/orig/sdcc/src/pic14/gen.c:5502:genGenericShift
02EB   1C03           02636         BTFSS   STATUS,0
                      02637 ;; >>> /home/sdcc-builder/build/sdcc-build/orig/sdcc/src/pic14/gen.c:5503:genGenericShift
                      02638 ;; ***  popGetLabel  key=30, label offset 4
02EC   2???           02639         GOTO    _00134_DS_
                      02640 ;;; /home/sdcc-builder/build/sdcc-build/orig/sdcc/src/pic14/gen.c:2316:resultRemat *{*
                      02641 ;;; /home/sdcc-builder/build/sdcc-build/orig/sdcc/src/pic14/gen.c:1609:genCpl *{*
                      02642 ;; ***  genCpl  1611
                      02643 ;;      694 register type nRegs=1
                      02644 ;;      694 register type nRegs=1
                      02645 ;; >>> /home/sdcc-builder/build/sdcc-build/orig/sdcc/src/pic14/gen.c:1631:genCpl
                      02646 ;;      1109 rIdx = r0x1048 
02ED                  02647 _00135_DS_
02ED   ???? ????      02648         BANKSEL r0x100A
02EF   09??           02649         COMF    r0x100A,F
02F0   ???? ????      02650         BANKSEL _TRISE
02F2   08??           02651         MOVF    _TRISE,W
                      02652 ;; >>> /home/sdcc-builder/build/sdcc-build/orig/sdcc/src/pic14/gen.c:4138:genAnd
                      02653 ;;      1109 rIdx = r0x1048 
02F3   ???? ????      02654         BANKSEL r0x100A
02F5   05??           02655         ANDWF   r0x100A,F
                      02656 ;;; /home/sdcc-builder/build/sdcc-build/orig/sdcc/src/pic14/gen.c:2316:resultRemat *{*
                      02657 ;;; /home/sdcc-builder/build/sdcc-build/orig/sdcc/src/pic14/gen.c:5418:genGenericShift *{*
                      02658 ;; ***  genGenericShift  5421
                      02659 ;;      694 register type nRegs=1
                      02660 ;;      694 register type nRegs=1
                      02661 ;;      694 register type nRegs=1
                      02662 ;; ***  mov2w  1381  offset=0
                      02663 ;; >>> /home/sdcc-builder/build/sdcc-build/orig/sdcc/src/pic14/gen.c:1386:mov2w
                      02664 ;;      1109 rIdx = r0x104A 
02F6   08??           02665         MOVF    r0x100C,W
                      02666 ;; >>> /home/sdcc-builder/build/sdcc-build/orig/sdcc/src/pic14/gen.c:1393:movwf
                      02667 ;;      1109 rIdx = r0x104B 
02F7   00??           02668         MOVWF   r0x100D
gpasm-1.4.0 #1106 (Oct  6 2014) obj\Debug\gpi   12-6-2023  18:52:19         PAGE 52


LOC    OBJECT CODE    LINE  SOURCE TEXT
  VALUE

                      02669 ;; ***  addSign  861
                      02670 ;;; /home/sdcc-builder/build/sdcc-build/orig/sdcc/src/pic14/genarith.c:862:addSign *{*
                      02671 ;; ***  mov2w  1381  offset=0
                      02672 ;; >>> /home/sdcc-builder/build/sdcc-build/orig/sdcc/src/pic14/gen.c:1386:mov2w
                      02673 ;;      1109 rIdx = r0x1049 
02F8   08??           02674         MOVF    r0x100B,W
                      02675 ;; >>> /home/sdcc-builder/build/sdcc-build/orig/sdcc/src/pic14/gen.c:5492:genGenericShift
02F9   3C00           02676         SUBLW   0x00
                      02677 ;; >>> /home/sdcc-builder/build/sdcc-build/orig/sdcc/src/pic14/gen.c:5494:genGenericShift
02FA   1903           02678         BTFSC   STATUS,2
                      02679 ;; >>> /home/sdcc-builder/build/sdcc-build/orig/sdcc/src/pic14/gen.c:5495:genGenericShift
                      02680 ;; ***  popGetLabel  key=33, label offset 4
02FB   2???           02681         GOTO    _00137_DS_
                      02682 ;;; /home/sdcc-builder/build/sdcc-build/orig/sdcc/src/pic14/gen.c:5369:genMultiAsm *{*
                      02683 ;; ***  genMultiAsm  5370
                      02684 ;; >>> /home/sdcc-builder/build/sdcc-build/orig/sdcc/src/pic14/gen.c:5387:genMultiAsm
                      02685 ;;      1109 rIdx = r0x104B 
02FC                  02686 _00136_DS_
02FC   ???? ????      02687         BANKSEL r0x100D
02FE   0D??           02688         RLF     r0x100D,F
                      02689 ;; >>> /home/sdcc-builder/build/sdcc-build/orig/sdcc/src/pic14/gen.c:5501:genGenericShift
02FF   3E01           02690         ADDLW   0x01
                      02691 ;; >>> /home/sdcc-builder/build/sdcc-build/orig/sdcc/src/pic14/gen.c:5502:genGenericShift
0300   1C03           02692         BTFSS   STATUS,0
                      02693 ;; >>> /home/sdcc-builder/build/sdcc-build/orig/sdcc/src/pic14/gen.c:5503:genGenericShift
                      02694 ;; ***  popGetLabel  key=32, label offset 4
0301   2???           02695         GOTO    _00136_DS_
                      02696 ;;; /home/sdcc-builder/build/sdcc-build/orig/sdcc/src/pic14/gen.c:2316:resultRemat *{*
                      02697 ;;; /home/sdcc-builder/build/sdcc-build/orig/sdcc/src/pic14/gen.c:4220:genOr *{*
                      02698 ;; ***  genOr  4221
                      02699 ;;      694 register type nRegs=1
                      02700 ;;      694 register type nRegs=1
                      02701 ;; ***  aopForSym 315
                      02702 ;;      327 sym->rname = _TRISE, size = 1
                      02703 ;;      line = 4227 result AOP_DIR=_TRISE, size=1, left AOP_REG=r0x1048, size=1, right AOP_REG=r0x104B, 
                            size=1
                      02704 ;;      line = 4253 result AOP_DIR=_TRISE, size=1, left AOP_REG=r0x1048, size=1, right AOP_REG=r0x104B, 
                            size=1
                      02705 ;; >>> /home/sdcc-builder/build/sdcc-build/orig/sdcc/src/pic14/gen.c:4479:genOr
                      02706 ;;      1109 rIdx = r0x104B 
0302                  02707 _00137_DS_
0302   ???? ????      02708         BANKSEL r0x100D
0304   08??           02709         MOVF    r0x100D,W
                      02710 ;; >>> /home/sdcc-builder/build/sdcc-build/orig/sdcc/src/pic14/gen.c:4480:genOr
                      02711 ;;      1109 rIdx = r0x1048 
0305   04??           02712         IORWF   r0x100A,W
                      02713 ;; >>> /home/sdcc-builder/build/sdcc-build/orig/sdcc/src/pic14/gen.c:4481:genOr
                      02714 ;;      1009
                      02715 ;;      1028  _TRISE   offset=0
0306   ???? ????      02716         BANKSEL _TRISE
0308   00??           02717         MOVWF   _TRISE
                      02718 ;;; /home/sdcc-builder/build/sdcc-build/orig/sdcc/src/pic14/gen.c:2316:resultRemat *{*
                      02719 ;;; /home/sdcc-builder/build/sdcc-build/orig/sdcc/src/pic14/gen.c:2760:genLabel *{*
gpasm-1.4.0 #1106 (Oct  6 2014) obj\Debug\gpi   12-6-2023  18:52:19         PAGE 53


LOC    OBJECT CODE    LINE  SOURCE TEXT
  VALUE

                      02720 ;; ***  genLabel  2763
                      02721 ;;; /home/sdcc-builder/build/sdcc-build/orig/sdcc/src/pic14/gen.c:2316:resultRemat *{*
                      02722 ;;; /home/sdcc-builder/build/sdcc-build/orig/sdcc/src/pic14/gen.c:2528:genEndFunction *{*
                      02723 ;; ***  genEndFunction  2530
0309                  02724 _00111_DS_
                      02725         .line   27; "gpio.c"    }
0309   0008           02726         RETURN  
                      02727 ; exit point of _GPIO_InitPortPin
                      02728 ;;; /home/sdcc-builder/build/sdcc-build/orig/sdcc/src/pic14/gen.c:7426:genpic14Code *{*
                      02729 
                      02730 
                      02731 ;       code size estimation:
                      02732 ;         532+  123 =   655 instructions ( 1556 byte)
                      02733 
                      02734         end
gpasm-1.4.0 #1106 (Oct  6 2014) obj\Debug\gpi   12-6-2023  18:52:19         PAGE 54


SYMBOL TABLE
  LABEL                             VALUE

ACKDT                             00000005
ACKEN                             00000004
ACKSTAT                           00000006
ADCON0                            0000001F
ADCON1                            0000009F
ADCS0                             00000006
ADCS1                             00000007
ADCS2                             00000006
ADDEN                             00000003
ADFM                              00000007
ADIE                              00000006
ADIF                              00000006
ADON                              00000000
ADRESH                            0000001E
ADRESL                            0000009E
BCLIE                             00000003
BCLIF                             00000003
BF                                00000000
BRGH                              00000002
C                                 00000000
C1INV                             00000004
C1OUT                             00000006
C2INV                             00000005
C2OUT                             00000007
CCP1CON                           00000017
CCP1IE                            00000002
CCP1IF                            00000002
CCP1M0                            00000000
CCP1M1                            00000001
CCP1M2                            00000002
CCP1M3                            00000003
CCP1X                             00000005
CCP1Y                             00000004
CCP2CON                           0000001D
CCP2IE                            00000000
CCP2IF                            00000000
CCP2M0                            00000000
CCP2M1                            00000001
CCP2M2                            00000002
CCP2M3                            00000003
CCP2X                             00000005
CCP2Y                             00000004
CCPR1                             00000015
CCPR1H                            00000016
CCPR1L                            00000015
CCPR2                             0000001B
CCPR2H                            0000001C
CCPR2L                            0000001B
CHS0                              00000003
CHS1                              00000004
CHS2                              00000005
CIS                               00000003
CKE                               00000006
gpasm-1.4.0 #1106 (Oct  6 2014) obj\Debug\gpi   12-6-2023  18:52:19         PAGE 55


SYMBOL TABLE
  LABEL                             VALUE 

CKP                               00000004
CM0                               00000000
CM1                               00000001
CM2                               00000002
CMCON                             0000009C
CMIE                              00000006
CMIF                              00000006
CREN                              00000004
CSRC                              00000007
CVR0                              00000000
CVR1                              00000001
CVR2                              00000002
CVR3                              00000003
CVRCON                            0000009D
CVREN                             00000007
CVROE                             00000006
CVRR                              00000005
D                                 00000005
DATA_ADDRESS                      00000005
DC                                00000001
D_A                               00000005
D_NOT_A                           00000005
EEADR                             0000010D
EEADRH                            0000010F
EECON1                            0000018C
EECON2                            0000018D
EEDATA                            0000010C
EEDATH                            0000010E
EEIE                              00000004
EEIF                              00000004
EEPGD                             00000007
F                                 00000001
FERR                              00000002
FSR                               00000004
GCEN                              00000007
GIE                               00000007
GO                                00000002
GO_DONE                           00000002
GO_NOT_DONE                       00000002
I2C_DATA                          00000005
I2C_READ                          00000002
I2C_START                         00000003
I2C_STOP                          00000004
IBF                               00000007
IBOV                              00000005
INDF                              00000000
INTCON                            0000000B
INTE                              00000004
INTEDG                            00000006
INTF                              00000001
IRP                               00000007
NOT_A                             00000005
NOT_ADDRESS                       00000005
gpasm-1.4.0 #1106 (Oct  6 2014) obj\Debug\gpi   12-6-2023  18:52:19         PAGE 56


SYMBOL TABLE
  LABEL                             VALUE 

NOT_BO                            00000000
NOT_BOR                           00000000
NOT_DONE                          00000002
NOT_PD                            00000003
NOT_POR                           00000001
NOT_RBPU                          00000007
NOT_RC8                           00000006
NOT_T1SYNC                        00000002
NOT_TO                            00000004
NOT_TX8                           00000006
NOT_W                             00000002
NOT_WRITE                         00000002
OBF                               00000006
OERR                              00000001
OPTION_REG                        00000081
P                                 00000004
PCFG0                             00000000
PCFG1                             00000001
PCFG2                             00000002
PCFG3                             00000003
PCL                               00000002
PCLATH                            0000000A
PCON                              0000008E
PEIE                              00000006
PEN                               00000002
PIE1                              0000008C
PIE2                              0000008D
PIR1                              0000000C
PIR2                              0000000D
PORTA                             00000005
PORTB                             00000006
PORTC                             00000007
PORTD                             00000008
PORTE                             00000009
PR2                               00000092
PS0                               00000000
PS1                               00000001
PS2                               00000002
PSA                               00000003
PSAVE                             00000000
PSPIE                             00000007
PSPIF                             00000007
PSPMODE                           00000004
R                                 00000002
RA0                               00000000
RA1                               00000001
RA2                               00000002
RA3                               00000003
RA4                               00000004
RA5                               00000005
RB0                               00000000
RB1                               00000001
RB2                               00000002
gpasm-1.4.0 #1106 (Oct  6 2014) obj\Debug\gpi   12-6-2023  18:52:19         PAGE 57


SYMBOL TABLE
  LABEL                             VALUE 

RB3                               00000003
RB4                               00000004
RB5                               00000005
RB6                               00000006
RB7                               00000007
RBIE                              00000003
RBIF                              00000000
RC0                               00000000
RC1                               00000001
RC2                               00000002
RC3                               00000003
RC4                               00000004
RC5                               00000005
RC6                               00000006
RC7                               00000007
RC8_9                             00000006
RC9                               00000006
RCD8                              00000000
RCEN                              00000003
RCIE                              00000005
RCIF                              00000005
RCREG                             0000001A
RCSTA                             00000018
RD                                00000000
RD0                               00000000
RD1                               00000001
RD2                               00000002
RD3                               00000003
RD4                               00000004
RD5                               00000005
RD6                               00000006
RD7                               00000007
RE0                               00000000
RE1                               00000001
RE2                               00000002
READ_WRITE                        00000002
RP0                               00000005
RP1                               00000006
RSEN                              00000001
RX9                               00000006
RX9D                              00000000
R_NOT_W                           00000002
R_W                               00000002
S                                 00000003
SEN                               00000000
SMP                               00000007
SPBRG                             00000099
SPEN                              00000007
SREN                              00000005
SSAVE                             00000000
SSPADD                            00000093
SSPBUF                            00000013
SSPCON                            00000014
gpasm-1.4.0 #1106 (Oct  6 2014) obj\Debug\gpi   12-6-2023  18:52:19         PAGE 58


SYMBOL TABLE
  LABEL                             VALUE 

SSPCON2                           00000091
SSPEN                             00000005
SSPIE                             00000003
SSPIF                             00000003
SSPM0                             00000000
SSPM1                             00000001
SSPM2                             00000002
SSPM3                             00000003
SSPOV                             00000006
SSPSTAT                           00000094
STATUS                            00000003
STK00                             00000000
STK01                             00000000
STK02                             00000000
STK03                             00000000
STK04                             00000000
STK05                             00000000
STK06                             00000000
STK07                             00000000
STK08                             00000000
STK09                             00000000
STK10                             00000000
STK11                             00000000
STK12                             00000000
SYNC                              00000004
T0CS                              00000005
T0IE                              00000005
T0IF                              00000002
T0SE                              00000004
T1CKPS0                           00000004
T1CKPS1                           00000005
T1CON                             00000010
T1INSYNC                          00000002
T1OSCEN                           00000003
T1SYNC                            00000002
T2CKPS0                           00000000
T2CKPS1                           00000001
T2CON                             00000012
TMR0                              00000001
TMR0IE                            00000005
TMR0IF                            00000002
TMR1                              0000000E
TMR1CS                            00000001
TMR1H                             0000000F
TMR1IE                            00000000
TMR1IF                            00000000
TMR1L                             0000000E
TMR1ON                            00000000
TMR2                              00000011
TMR2IE                            00000001
TMR2IF                            00000001
TMR2ON                            00000002
TOUTPS0                           00000003
gpasm-1.4.0 #1106 (Oct  6 2014) obj\Debug\gpi   12-6-2023  18:52:19         PAGE 59


SYMBOL TABLE
  LABEL                             VALUE 

TOUTPS1                           00000004
TOUTPS2                           00000005
TOUTPS3                           00000006
TRISA                             00000085
TRISA0                            00000000
TRISA1                            00000001
TRISA2                            00000002
TRISA3                            00000003
TRISA4                            00000004
TRISA5                            00000005
TRISB                             00000086
TRISB0                            00000000
TRISB1                            00000001
TRISB2                            00000002
TRISB3                            00000003
TRISB4                            00000004
TRISB5                            00000005
TRISB6                            00000006
TRISB7                            00000007
TRISC                             00000087
TRISC0                            00000000
TRISC1                            00000001
TRISC2                            00000002
TRISC3                            00000003
TRISC4                            00000004
TRISC5                            00000005
TRISC6                            00000006
TRISC7                            00000007
TRISD                             00000088
TRISD0                            00000000
TRISD1                            00000001
TRISD2                            00000002
TRISD3                            00000003
TRISD4                            00000004
TRISD5                            00000005
TRISD6                            00000006
TRISD7                            00000007
TRISE                             00000089
TRISE0                            00000000
TRISE1                            00000001
TRISE2                            00000002
TRMT                              00000001
TX8_9                             00000006
TX9                               00000006
TX9D                              00000000
TXD8                              00000000
TXEN                              00000005
TXIE                              00000004
TXIF                              00000004
TXREG                             00000019
TXSTA                             00000098
UA                                00000001
W                                 00000000
gpasm-1.4.0 #1106 (Oct  6 2014) obj\Debug\gpi   12-6-2023  18:52:19         PAGE 60


SYMBOL TABLE
  LABEL                             VALUE 

WCOL                              00000007
WR                                00000001
WREN                              00000002
WRERR                             00000003
WSAVE                             00000000
Z                                 00000002
_00001_DS_                        00000017
_00002_DS_                        00000137
_00003_DS_                        0000022D
_00105_DS_                        00000233
_00106_DS_                        0000025E
_00107_DS_                        00000289
_00108_DS_                        000002B4
_00109_DS_                        000002DF
_00111_DS_                        00000309
_00117_DS_                        0000022E
_00118_DS_                        0000023B
_00119_DS_                        00000241
_00120_DS_                        00000250
_00121_DS_                        00000256
_00122_DS_                        00000266
_00123_DS_                        0000026C
_00124_DS_                        0000027B
_00125_DS_                        00000281
_00126_DS_                        00000291
_00127_DS_                        00000297
_00128_DS_                        000002A6
_00129_DS_                        000002AC
_00130_DS_                        000002BC
_00131_DS_                        000002C2
_00132_DS_                        000002D1
_00133_DS_                        000002D7
_00134_DS_                        000002E7
_00135_DS_                        000002ED
_00136_DS_                        000002FC
_00137_DS_                        00000302
_00146_DS_                        0000013D
_00147_DS_                        00000168
_00148_DS_                        00000193
_00149_DS_                        000001BE
_00150_DS_                        000001E9
_00152_DS_                        00000213
_00158_DS_                        00000138
_00159_DS_                        00000145
_00160_DS_                        0000014B
_00161_DS_                        0000015A
_00162_DS_                        00000160
_00163_DS_                        00000170
_00164_DS_                        00000176
_00165_DS_                        00000185
_00166_DS_                        0000018B
_00167_DS_                        0000019B
_00168_DS_                        000001A1
gpasm-1.4.0 #1106 (Oct  6 2014) obj\Debug\gpi   12-6-2023  18:52:19         PAGE 61


SYMBOL TABLE
  LABEL                             VALUE 

_00169_DS_                        000001B0
_00170_DS_                        000001B6
_00171_DS_                        000001C6
_00172_DS_                        000001CC
_00173_DS_                        000001DB
_00174_DS_                        000001E1
_00175_DS_                        000001F1
_00176_DS_                        000001F7
_00177_DS_                        00000206
_00178_DS_                        0000020C
_00183_DS_                        0000001D
_00184_DS_                        00000050
_00185_DS_                        00000083
_00186_DS_                        000000B6
_00187_DS_                        000000E9
_00188_DS_                        0000011B
_00195_DS_                        00000018
_00196_DS_                        00000027
_00197_DS_                        0000002E
_00198_DS_                        00000041
_00199_DS_                        0000004B
_00200_DS_                        0000005A
_00201_DS_                        00000061
_00202_DS_                        00000074
_00203_DS_                        0000007E
_00204_DS_                        0000008D
_00205_DS_                        00000094
_00206_DS_                        000000A7
_00207_DS_                        000000B1
_00208_DS_                        000000C0
_00209_DS_                        000000C7
_00210_DS_                        000000DA
_00211_DS_                        000000E4
_00212_DS_                        000000F3
_00213_DS_                        000000FA
_00214_DS_                        0000010D
_00215_DS_                        00000117
_ADCON0                           00000000
_ADCON0bits                       00000000
_ADCON1                           00000000
_ADCON1bits                       00000000
_ADRESH                           00000000
_ADRESL                           00000000
_BODEN_OFF                        00003FBF
_BODEN_ON                         00003FFF
_BOREN_OFF                        00003FBF
_BOREN_ON                         00003FFF
_CCP1CON                          00000000
_CCP1CONbits                      00000000
_CCP2CON                          00000000
_CCP2CONbits                      00000000
_CCPR1                            00000000
_CCPR1H                           00000000
gpasm-1.4.0 #1106 (Oct  6 2014) obj\Debug\gpi   12-6-2023  18:52:19         PAGE 62


SYMBOL TABLE
  LABEL                             VALUE 

_CCPR1L                           00000000
_CCPR2                            00000000
_CCPR2H                           00000000
_CCPR2L                           00000000
_CMCON                            00000000
_CMCONbits                        00000000
_CONFIG                           00002007
_CPD_OFF                          00003FFF
_CPD_ON                           00003EFF
_CP_ALL                           00001FFF
_CP_OFF                           00003FFF
_CP_ON                            00001FFF
_CVRCON                           00000000
_CVRCONbits                       00000000
_DEBUG_OFF                        00003FFF
_DEBUG_ON                         000037FF
_DEVID1                           00002006
_EEADR                            00000000
_EEADRH                           00000000
_EECON1                           00000000
_EECON1bits                       00000000
_EECON2                           00000000
_EEDATA                           00000000
_EEDATH                           00000000
_FOSC_EXTRC                       00003FFF
_FOSC_HS                          00003FFE
_FOSC_LP                          00003FFC
_FOSC_XT                          00003FFD
_FSR                              00000000
_GPIO_GetPortPinState             00000000
_GPIO_InitPortPin                 00000215
_GPIO_SetPortPinState             0000011F
_GPIO_Update                      00000214
_HS_OSC                           00003FFE
_IDLOC0                           00002000
_IDLOC1                           00002001
_IDLOC2                           00002002
_IDLOC3                           00002003
_INDF                             00000000
_INTCON                           00000000
_INTCONbits                       00000000
_LP_OSC                           00003FFC
_LVP_OFF                          00003F7F
_LVP_ON                           00003FFF
_OPTION_REG                       00000000
_OPTION_REGbits                   00000000
_PCL                              00000000
_PCLATH                           00000000
_PCON                             00000000
_PCONbits                         00000000
_PIE1                             00000000
_PIE1bits                         00000000
_PIE2                             00000000
gpasm-1.4.0 #1106 (Oct  6 2014) obj\Debug\gpi   12-6-2023  18:52:19         PAGE 63


SYMBOL TABLE
  LABEL                             VALUE 

_PIE2bits                         00000000
_PIR1                             00000000
_PIR1bits                         00000000
_PIR2                             00000000
_PIR2bits                         00000000
_PORTA                            00000000
_PORTAbits                        00000000
_PORTB                            00000000
_PORTBbits                        00000000
_PORTC                            00000000
_PORTCbits                        00000000
_PORTD                            00000000
_PORTDbits                        00000000
_PORTE                            00000000
_PORTEbits                        00000000
_PR2                              00000000
_PWRTE_OFF                        00003FFF
_PWRTE_ON                         00003FF7
_RCREG                            00000000
_RCSTA                            00000000
_RCSTAbits                        00000000
_RC_OSC                           00003FFF
_SPBRG                            00000000
_SSPADD                           00000000
_SSPBUF                           00000000
_SSPCON                           00000000
_SSPCON2                          00000000
_SSPCON2bits                      00000000
_SSPCONbits                       00000000
_SSPSTAT                          00000000
_SSPSTATbits                      00000000
_STATUS                           00000000
_STATUSbits                       00000000
_T1CON                            00000000
_T1CONbits                        00000000
_T2CON                            00000000
_T2CONbits                        00000000
_TMR0                             00000000
_TMR1                             00000000
_TMR1H                            00000000
_TMR1L                            00000000
_TMR2                             00000000
_TRISA                            00000000
_TRISAbits                        00000000
_TRISB                            00000000
_TRISBbits                        00000000
_TRISC                            00000000
_TRISCbits                        00000000
_TRISD                            00000000
_TRISDbits                        00000000
_TRISE                            00000000
_TRISEbits                        00000000
_TXREG                            00000000
gpasm-1.4.0 #1106 (Oct  6 2014) obj\Debug\gpi   12-6-2023  18:52:19         PAGE 64


SYMBOL TABLE
  LABEL                             VALUE 

_TXSTA                            00000000
_TXSTAbits                        00000000
_WDTE_OFF                         00003FFB
_WDTE_ON                          00003FFF
_WDT_OFF                          00003FFB
_WDT_ON                           00003FFF
_WRT_1FOURTH                      00003BFF
_WRT_256                          00003DFF
_WRT_HALF                         000039FF
_WRT_OFF                          00003FFF
_XT_OSC                           00003FFD
__16F877A                         00000001
__CODE_END                        00001FFF
__CODE_START                      00000000
__COMMON_RAM_END                  0000007F
__COMMON_RAM_START                00000070
__EEPROM_END                      000021FF
__EEPROM_START                    00002100
__VECTOR_INT                      00000004
__VECTOR_RESET                    00000000
r0x1000                           00000008
r0x1001                           00000009
r0x1002                           0000000A
r0x1003                           0000000B
r0x1004                           0000000C
r0x1005                           0000000D
r0x1006                           00000004
r0x1007                           00000005
r0x1008                           00000006
r0x1009                           00000007
r0x100A                           00000000
r0x100B                           00000001
r0x100C                           00000002
r0x100D                           00000003

Errors   :     0
Warnings :     0 reported,     0 suppressed
Messages :     0 reported,     0 suppressed

