;--------------------------------------------------------
; File Created by SDCC : free open source ANSI-C Compiler
; Version 3.5.0 #9253 (Jun 20 2015) (MINGW32)
; This file was generated Wed Dec 06 18:52:19 2023
;--------------------------------------------------------
; PIC port for the 14-bit core
;--------------------------------------------------------
	.file	"led.c"
	list	p=16f877a
	radix dec
	include "p16f877a.inc"
;--------------------------------------------------------
; external declarations
;--------------------------------------------------------
	extern	_UTIL_DelayMS
	extern	_GPIO_InitPortPin
	extern	_GPIO_Update
	extern	_GPIO_SetPortPinState
	extern	_GPIO_GetPortPinState
	extern	_STATUSbits
	extern	_PORTAbits
	extern	_PORTBbits
	extern	_PORTCbits
	extern	_PORTDbits
	extern	_PORTEbits
	extern	_INTCONbits
	extern	_PIR1bits
	extern	_PIR2bits
	extern	_T1CONbits
	extern	_T2CONbits
	extern	_SSPCONbits
	extern	_CCP1CONbits
	extern	_RCSTAbits
	extern	_CCP2CONbits
	extern	_ADCON0bits
	extern	_OPTION_REGbits
	extern	_TRISAbits
	extern	_TRISBbits
	extern	_TRISCbits
	extern	_TRISDbits
	extern	_TRISEbits
	extern	_PIE1bits
	extern	_PIE2bits
	extern	_PCONbits
	extern	_SSPCON2bits
	extern	_SSPSTATbits
	extern	_TXSTAbits
	extern	_CMCONbits
	extern	_CVRCONbits
	extern	_ADCON1bits
	extern	_EECON1bits
	extern	_INDF
	extern	_TMR0
	extern	_PCL
	extern	_STATUS
	extern	_FSR
	extern	_PORTA
	extern	_PORTB
	extern	_PORTC
	extern	_PORTD
	extern	_PORTE
	extern	_PCLATH
	extern	_INTCON
	extern	_PIR1
	extern	_PIR2
	extern	_TMR1
	extern	_TMR1L
	extern	_TMR1H
	extern	_T1CON
	extern	_TMR2
	extern	_T2CON
	extern	_SSPBUF
	extern	_SSPCON
	extern	_CCPR1
	extern	_CCPR1L
	extern	_CCPR1H
	extern	_CCP1CON
	extern	_RCSTA
	extern	_TXREG
	extern	_RCREG
	extern	_CCPR2
	extern	_CCPR2L
	extern	_CCPR2H
	extern	_CCP2CON
	extern	_ADRESH
	extern	_ADCON0
	extern	_OPTION_REG
	extern	_TRISA
	extern	_TRISB
	extern	_TRISC
	extern	_TRISD
	extern	_TRISE
	extern	_PIE1
	extern	_PIE2
	extern	_PCON
	extern	_SSPCON2
	extern	_PR2
	extern	_SSPADD
	extern	_SSPSTAT
	extern	_TXSTA
	extern	_SPBRG
	extern	_CMCON
	extern	_CVRCON
	extern	_ADRESL
	extern	_ADCON1
	extern	_EEDATA
	extern	_EEADR
	extern	_EEDATH
	extern	_EEADRH
	extern	_EECON1
	extern	_EECON2

	extern PSAVE
	extern SSAVE
	extern WSAVE
	extern STK12
	extern STK11
	extern STK10
	extern STK09
	extern STK08
	extern STK07
	extern STK06
	extern STK05
	extern STK04
	extern STK03
	extern STK02
	extern STK01
	extern STK00
;--------------------------------------------------------
; global declarations
;--------------------------------------------------------
	global	_LED_GetState
	global	_LED_SetState
	global	_LED_Update
	global	_LED_Init

;--------------------------------------------------------
; global definitions
;--------------------------------------------------------
;--------------------------------------------------------
; absolute symbol definitions
;--------------------------------------------------------
;--------------------------------------------------------
; compiler-defined variables
;--------------------------------------------------------
UDL_led_0	udata
r0x1004	res	1
r0x1005	res	1
r0x1000	res	1
r0x1001	res	1
r0x1002	res	1
;--------------------------------------------------------
; initialized data
;--------------------------------------------------------
;--------------------------------------------------------
; overlayable items in internal ram 
;--------------------------------------------------------
;	udata_ovr
;--------------------------------------------------------
; code
;--------------------------------------------------------
code_led	code
;***
;  pBlock Stats: dbName = C
;***
;entry:  _LED_Toggle	;Function start
; 2 exit points
;has an exit
;functions called:
;   _LED_GetState
;   _LED_SetState
;   _LED_SetState
;   _LED_GetState
;   _LED_SetState
;   _LED_SetState
;3 compiler assigned registers:
;   r0x1002
;   r0x1003
;   STK00
;; Starting pCode block
;;; /home/sdcc-builder/build/sdcc-build/orig/sdcc/src/pic14/gen.c:2316:resultRemat *{*
;;; /home/sdcc-builder/build/sdcc-build/orig/sdcc/src/pic14/gen.c:2760:genLabel *{*
;; ***	genLabel  2763
;;; /home/sdcc-builder/build/sdcc-build/orig/sdcc/src/pic14/gen.c:2316:resultRemat *{*
;;; /home/sdcc-builder/build/sdcc-build/orig/sdcc/src/pic14/gen.c:2340:genFunction *{*
;; ***	genFunction  2342 curr label offset=42previous max_key=13 
_LED_Toggle	;Function start
; 2 exit points
;;; /home/sdcc-builder/build/sdcc-build/orig/sdcc/src/pic14/gen.c:2316:resultRemat *{*
;;; /home/sdcc-builder/build/sdcc-build/orig/sdcc/src/pic14/gen.c:7358:genReceive *{*
;; ***	genReceive  7359
;;	694 register type nRegs=1
;;; /home/sdcc-builder/build/sdcc-build/orig/sdcc/src/pic14/gen.c:1907:assignResultValue *{*
;; ***	assignResultValue  1909
;; 	line = 1911 result -=-, size=0, left AOP_REG=r0x104E, size=1, right -=-, size=0
;; >>> /home/sdcc-builder/build/sdcc-build/orig/sdcc/src/pic14/gen.c:1393:movwf
;;	1109 rIdx = r0x104E 
	.line	102; "led.c"	static void LED_Toggle(tLED led)
	BANKSEL	r0x1002
	MOVWF	r0x1002
	.line	104; "led.c"	if(LED_GetState(led) == LED_ON)
	CALL	_LED_GetState
;;	694 register type nRegs=1
;;; /home/sdcc-builder/build/sdcc-build/orig/sdcc/src/pic14/gen.c:1907:assignResultValue *{*
;; ***	assignResultValue  1909
;; 	line = 1911 result -=-, size=0, left AOP_REG=r0x104F, size=1, right -=-, size=0
;; >>> /home/sdcc-builder/build/sdcc-build/orig/sdcc/src/pic14/gen.c:1393:movwf
;;	1109 rIdx = r0x104F 
;;1	MOVWF	r0x1003
	XORLW	0x01
;; >>> /home/sdcc-builder/build/sdcc-build/orig/sdcc/src/pic14/gen.c:3687:genCmpEq
	BTFSS	STATUS,2
;; >>> /home/sdcc-builder/build/sdcc-build/orig/sdcc/src/pic14/gen.c:3690:genCmpEq
;; ***	popGetLabel  key=2, label offset 59
	GOTO	_00161_DS_
;;; /home/sdcc-builder/build/sdcc-build/orig/sdcc/src/pic14/gen.c:2316:resultRemat *{*
;;; /home/sdcc-builder/build/sdcc-build/orig/sdcc/src/pic14/gen.c:2316:resultRemat *{*
;;; /home/sdcc-builder/build/sdcc-build/orig/sdcc/src/pic14/gen.c:2316:resultRemat *{*
;;; /home/sdcc-builder/build/sdcc-build/orig/sdcc/src/pic14/gen.c:2316:resultRemat *{*
;;; /home/sdcc-builder/build/sdcc-build/orig/sdcc/src/pic14/gen.c:2086:genCall *{*
;; ***	genCall  2088
;;; /home/sdcc-builder/build/sdcc-build/orig/sdcc/src/pic14/gen.c:1801:saveRegisters *{*
;; ***	saveRegisters  1803
;;	694 register type nRegs=1
;; 	2135 left AOP_LIT
;;; /home/sdcc-builder/build/sdcc-build/orig/sdcc/src/pic14/gen.c:1343:mov2w_op *{*
;; >>> /home/sdcc-builder/build/sdcc-build/orig/sdcc/src/pic14/gen.c:1361:mov2w_op
	.line	106; "led.c"	LED_SetState(led, LED_OFF);
	MOVLW	0x00
;;	694 register type nRegs=1
;; 	2135 left AOP_REG
;; >>> /home/sdcc-builder/build/sdcc-build/orig/sdcc/src/pic14/gen.c:2143:genCall
;; ***	popRegFromIdx,1042  , rIdx=0x7f
	MOVWF	STK00
;;; /home/sdcc-builder/build/sdcc-build/orig/sdcc/src/pic14/gen.c:1343:mov2w_op *{*
;; ***	mov2w  1381  offset=0
;; >>> /home/sdcc-builder/build/sdcc-build/orig/sdcc/src/pic14/gen.c:1386:mov2w
;;	1109 rIdx = r0x104E 
	BANKSEL	r0x1002
	MOVF	r0x1002,W
;; >>> /home/sdcc-builder/build/sdcc-build/orig/sdcc/src/pic14/gen.c:2175:genCall
	CALL	_LED_SetState
;;; /home/sdcc-builder/build/sdcc-build/orig/sdcc/src/pic14/gen.c:1845:unsaveRegisters *{*
;; ***	unsaveRegisters  1847
;;; /home/sdcc-builder/build/sdcc-build/orig/sdcc/src/pic14/gen.c:2316:resultRemat *{*
;;; /home/sdcc-builder/build/sdcc-build/orig/sdcc/src/pic14/gen.c:2778:genGoto *{*
;; >>> /home/sdcc-builder/build/sdcc-build/orig/sdcc/src/pic14/gen.c:2780:genGoto
;; ***	popGetLabel  key=4, label offset 59
	GOTO	_00163_DS_
;;; /home/sdcc-builder/build/sdcc-build/orig/sdcc/src/pic14/gen.c:2316:resultRemat *{*
;;; /home/sdcc-builder/build/sdcc-build/orig/sdcc/src/pic14/gen.c:2760:genLabel *{*
;; ***	genLabel  2763
;;; /home/sdcc-builder/build/sdcc-build/orig/sdcc/src/pic14/gen.c:2316:resultRemat *{*
;;; /home/sdcc-builder/build/sdcc-build/orig/sdcc/src/pic14/gen.c:2316:resultRemat *{*
;;; /home/sdcc-builder/build/sdcc-build/orig/sdcc/src/pic14/gen.c:2316:resultRemat *{*
;;; /home/sdcc-builder/build/sdcc-build/orig/sdcc/src/pic14/gen.c:2086:genCall *{*
;; ***	genCall  2088
;;; /home/sdcc-builder/build/sdcc-build/orig/sdcc/src/pic14/gen.c:1801:saveRegisters *{*
;; ***	saveRegisters  1803
;;	694 register type nRegs=1
;; 	2135 left AOP_LIT
;;; /home/sdcc-builder/build/sdcc-build/orig/sdcc/src/pic14/gen.c:1343:mov2w_op *{*
;; >>> /home/sdcc-builder/build/sdcc-build/orig/sdcc/src/pic14/gen.c:1361:mov2w_op
_00161_DS_
	.line	109; "led.c"	LED_SetState(led, LED_ON);
	MOVLW	0x01
;;	694 register type nRegs=1
;; 	2135 left AOP_REG
;; >>> /home/sdcc-builder/build/sdcc-build/orig/sdcc/src/pic14/gen.c:2143:genCall
;; ***	popRegFromIdx,1042  , rIdx=0x7f
	MOVWF	STK00
;;; /home/sdcc-builder/build/sdcc-build/orig/sdcc/src/pic14/gen.c:1343:mov2w_op *{*
;; ***	mov2w  1381  offset=0
;; >>> /home/sdcc-builder/build/sdcc-build/orig/sdcc/src/pic14/gen.c:1386:mov2w
;;	1109 rIdx = r0x104E 
	BANKSEL	r0x1002
	MOVF	r0x1002,W
;; >>> /home/sdcc-builder/build/sdcc-build/orig/sdcc/src/pic14/gen.c:2175:genCall
	CALL	_LED_SetState
;;; /home/sdcc-builder/build/sdcc-build/orig/sdcc/src/pic14/gen.c:1845:unsaveRegisters *{*
;; ***	unsaveRegisters  1847
;;; /home/sdcc-builder/build/sdcc-build/orig/sdcc/src/pic14/gen.c:2316:resultRemat *{*
;;; /home/sdcc-builder/build/sdcc-build/orig/sdcc/src/pic14/gen.c:2760:genLabel *{*
;; ***	genLabel  2763
;;; /home/sdcc-builder/build/sdcc-build/orig/sdcc/src/pic14/gen.c:2316:resultRemat *{*
;;; /home/sdcc-builder/build/sdcc-build/orig/sdcc/src/pic14/gen.c:2528:genEndFunction *{*
;; ***	genEndFunction  2530
_00163_DS_
	RETURN	
; exit point of _LED_Toggle

;***
;  pBlock Stats: dbName = C
;***
;entry:  _LED_GetState	;Function start
; 2 exit points
;has an exit
;functions called:
;   _GPIO_GetPortPinState
;   _GPIO_GetPortPinState
;   _GPIO_GetPortPinState
;   _GPIO_GetPortPinState
;   _GPIO_GetPortPinState
;   _GPIO_GetPortPinState
;   _GPIO_GetPortPinState
;   _GPIO_GetPortPinState
;3 compiler assigned registers:
;   r0x1000
;   r0x1001
;   STK00
;; Starting pCode block
;;; /home/sdcc-builder/build/sdcc-build/orig/sdcc/src/pic14/gen.c:2316:resultRemat *{*
;;; /home/sdcc-builder/build/sdcc-build/orig/sdcc/src/pic14/gen.c:2760:genLabel *{*
;; ***	genLabel  2763
;;; /home/sdcc-builder/build/sdcc-build/orig/sdcc/src/pic14/gen.c:2316:resultRemat *{*
;;; /home/sdcc-builder/build/sdcc-build/orig/sdcc/src/pic14/gen.c:2340:genFunction *{*
;; ***	genFunction  2342 curr label offset=25previous max_key=13 
_LED_GetState	;Function start
; 2 exit points
;;; /home/sdcc-builder/build/sdcc-build/orig/sdcc/src/pic14/gen.c:2316:resultRemat *{*
;;; /home/sdcc-builder/build/sdcc-build/orig/sdcc/src/pic14/gen.c:7358:genReceive *{*
;; ***	genReceive  7359
;;	694 register type nRegs=1
;;; /home/sdcc-builder/build/sdcc-build/orig/sdcc/src/pic14/gen.c:1907:assignResultValue *{*
;; ***	assignResultValue  1909
;; 	line = 1911 result -=-, size=0, left AOP_REG=r0x104C, size=1, right -=-, size=0
;; >>> /home/sdcc-builder/build/sdcc-build/orig/sdcc/src/pic14/gen.c:1393:movwf
;;	1109 rIdx = r0x104C 
	.line	72; "led.c"	tLED_State LED_GetState(tLED led)
	BANKSEL	r0x1000
	MOVWF	r0x1000
;;; /home/sdcc-builder/build/sdcc-build/orig/sdcc/src/pic14/gen.c:2316:resultRemat *{*
;;; /home/sdcc-builder/build/sdcc-build/orig/sdcc/src/pic14/gen.c:6927:genAssign *{*
;; ***	genAssign  6928
;;	694 register type nRegs=1
;; 	line = 6937 result AOP_REG=r0x104D, size=1, left -=-, size=0, right AOP_LIT=0x00, size=1
;; ***	genAssign  7023
;; >>> /home/sdcc-builder/build/sdcc-build/orig/sdcc/src/pic14/gen.c:7035:genAssign
;;	1109 rIdx = r0x104D 
	.line	74; "led.c"	tLED_State ret = LED_OFF;
	CLRF	r0x1001
;;; /home/sdcc-builder/build/sdcc-build/orig/sdcc/src/pic14/gen.c:2316:resultRemat *{*
;;; /home/sdcc-builder/build/sdcc-build/orig/sdcc/src/pic14/gen.c:3547:genCmpGt *{*
;; ***	genCmpGt  3548
;;	694 register type nRegs=1
;;; /home/sdcc-builder/build/sdcc-build/orig/sdcc/src/pic14/gen.c:3294:genCmp *{*
;;swapping arguments (AOP_TYPEs 1/2)
;;unsigned compare: left >= lit(0x4=4), size=1
;; >>> /home/sdcc-builder/build/sdcc-build/orig/sdcc/src/pic14/gen.c:3265:pic14_mov2w_regOrLit
	.line	76; "led.c"	switch(led)
	MOVLW	0x04
;; >>> /home/sdcc-builder/build/sdcc-build/orig/sdcc/src/pic14/gen.c:3432:genCmp
;;	1109 rIdx = r0x104C 
	SUBWF	r0x1000,W
;;; /home/sdcc-builder/build/sdcc-build/orig/sdcc/src/pic14/gen.c:3237:genSkipc *{*
;; >>> /home/sdcc-builder/build/sdcc-build/orig/sdcc/src/pic14/gen.c:3242:genSkipc
	BTFSC	STATUS,0
;; >>> /home/sdcc-builder/build/sdcc-build/orig/sdcc/src/pic14/gen.c:3246:genSkipc
;; ***	popGetLabel  key=6, label offset 42
	GOTO	_00148_DS_
;;genSkipc:3247: created from rifx:027A5DF4
;;; /home/sdcc-builder/build/sdcc-build/orig/sdcc/src/pic14/gen.c:2316:resultRemat *{*
;;; /home/sdcc-builder/build/sdcc-build/orig/sdcc/src/pic14/gen.c:2316:resultRemat *{*
;;; /home/sdcc-builder/build/sdcc-build/orig/sdcc/src/pic14/gen.c:7071:genJumpTab *{*
;; ***	genJumpTab  7072
;;	694 register type nRegs=1
;; >>> /home/sdcc-builder/build/sdcc-build/orig/sdcc/src/pic14/gen.c:7087:genJumpTab
;; ***	popGetLabel  key=13, label offset 42
	MOVLW	HIGH(_00155_DS_)
;; >>> /home/sdcc-builder/build/sdcc-build/orig/sdcc/src/pic14/gen.c:7088:genJumpTab
	BANKSEL	PCLATH
	MOVWF	PCLATH
;; >>> /home/sdcc-builder/build/sdcc-build/orig/sdcc/src/pic14/gen.c:7089:genJumpTab
;; ***	popGetLabel  key=13, label offset 42
	MOVLW	_00155_DS_
;; >>> /home/sdcc-builder/build/sdcc-build/orig/sdcc/src/pic14/gen.c:7090:genJumpTab
;;	1109 rIdx = r0x104C 
	BANKSEL	r0x1000
	ADDWF	r0x1000,W
;; >>> /home/sdcc-builder/build/sdcc-build/orig/sdcc/src/pic14/gen.c:7091:genJumpTab
	BTFSS	STATUS,0
	GOTO	_00001_DS_
;; >>> /home/sdcc-builder/build/sdcc-build/orig/sdcc/src/pic14/gen.c:7092:genJumpTab
	BANKSEL	PCLATH
	INCF	PCLATH,F
;; >>> /home/sdcc-builder/build/sdcc-build/orig/sdcc/src/pic14/gen.c:7093:genJumpTab
_00001_DS_
	MOVWF	PCL
;; >>> /home/sdcc-builder/build/sdcc-build/orig/sdcc/src/pic14/gen.c:7102:genJumpTab
;; ***	popGetLabel  key=1, label offset 42
_00155_DS_
	GOTO	_00143_DS_
;; >>> /home/sdcc-builder/build/sdcc-build/orig/sdcc/src/pic14/gen.c:7102:genJumpTab
;; ***	popGetLabel  key=2, label offset 42
	GOTO	_00144_DS_
;; >>> /home/sdcc-builder/build/sdcc-build/orig/sdcc/src/pic14/gen.c:7102:genJumpTab
;; ***	popGetLabel  key=3, label offset 42
	GOTO	_00145_DS_
;; >>> /home/sdcc-builder/build/sdcc-build/orig/sdcc/src/pic14/gen.c:7102:genJumpTab
;; ***	popGetLabel  key=4, label offset 42
	GOTO	_00146_DS_
;;; /home/sdcc-builder/build/sdcc-build/orig/sdcc/src/pic14/gen.c:2316:resultRemat *{*
;;; /home/sdcc-builder/build/sdcc-build/orig/sdcc/src/pic14/gen.c:2760:genLabel *{*
;; ***	genLabel  2763
;;; /home/sdcc-builder/build/sdcc-build/orig/sdcc/src/pic14/gen.c:2316:resultRemat *{*
;;; /home/sdcc-builder/build/sdcc-build/orig/sdcc/src/pic14/gen.c:2316:resultRemat *{*
;;; /home/sdcc-builder/build/sdcc-build/orig/sdcc/src/pic14/gen.c:2316:resultRemat *{*
;;; /home/sdcc-builder/build/sdcc-build/orig/sdcc/src/pic14/gen.c:2086:genCall *{*
;; ***	genCall  2088
;;; /home/sdcc-builder/build/sdcc-build/orig/sdcc/src/pic14/gen.c:1801:saveRegisters *{*
;; ***	saveRegisters  1803
;; 	2135 left AOP_LIT
;;; /home/sdcc-builder/build/sdcc-build/orig/sdcc/src/pic14/gen.c:1343:mov2w_op *{*
;; >>> /home/sdcc-builder/build/sdcc-build/orig/sdcc/src/pic14/gen.c:1361:mov2w_op
_00143_DS_
	.line	80; "led.c"	ret = GPIO_GetPortPinState(PORT_B, 0);
	MOVLW	0x00
;; 	2135 left AOP_LIT
;; >>> /home/sdcc-builder/build/sdcc-build/orig/sdcc/src/pic14/gen.c:2143:genCall
;; ***	popRegFromIdx,1042  , rIdx=0x7f
	MOVWF	STK00
;;; /home/sdcc-builder/build/sdcc-build/orig/sdcc/src/pic14/gen.c:1343:mov2w_op *{*
;; >>> /home/sdcc-builder/build/sdcc-build/orig/sdcc/src/pic14/gen.c:1361:mov2w_op
	MOVLW	0x01
;; >>> /home/sdcc-builder/build/sdcc-build/orig/sdcc/src/pic14/gen.c:2173:genCall
	PAGESEL	_GPIO_GetPortPinState
;; >>> /home/sdcc-builder/build/sdcc-build/orig/sdcc/src/pic14/gen.c:2175:genCall
	CALL	_GPIO_GetPortPinState
;; >>> /home/sdcc-builder/build/sdcc-build/orig/sdcc/src/pic14/gen.c:2181:genCall
	PAGESEL	$
;;	694 register type nRegs=1
;;; /home/sdcc-builder/build/sdcc-build/orig/sdcc/src/pic14/gen.c:1907:assignResultValue *{*
;; ***	assignResultValue  1909
;; 	line = 1911 result -=-, size=0, left AOP_REG=r0x104D, size=1, right -=-, size=0
;; >>> /home/sdcc-builder/build/sdcc-build/orig/sdcc/src/pic14/gen.c:1393:movwf
;;	1109 rIdx = r0x104D 
	BANKSEL	r0x1001
	MOVWF	r0x1001
;; 	2195 left AOP_REG
;;; /home/sdcc-builder/build/sdcc-build/orig/sdcc/src/pic14/gen.c:1845:unsaveRegisters *{*
;; ***	unsaveRegisters  1847
;;; /home/sdcc-builder/build/sdcc-build/orig/sdcc/src/pic14/gen.c:2316:resultRemat *{*
;;; /home/sdcc-builder/build/sdcc-build/orig/sdcc/src/pic14/gen.c:2778:genGoto *{*
;; >>> /home/sdcc-builder/build/sdcc-build/orig/sdcc/src/pic14/gen.c:2780:genGoto
;; ***	popGetLabel  key=6, label offset 42
	.line	81; "led.c"	break;
	GOTO	_00148_DS_
;;; /home/sdcc-builder/build/sdcc-build/orig/sdcc/src/pic14/gen.c:2316:resultRemat *{*
;;; /home/sdcc-builder/build/sdcc-build/orig/sdcc/src/pic14/gen.c:2760:genLabel *{*
;; ***	genLabel  2763
;;; /home/sdcc-builder/build/sdcc-build/orig/sdcc/src/pic14/gen.c:2316:resultRemat *{*
;;; /home/sdcc-builder/build/sdcc-build/orig/sdcc/src/pic14/gen.c:2316:resultRemat *{*
;;; /home/sdcc-builder/build/sdcc-build/orig/sdcc/src/pic14/gen.c:2316:resultRemat *{*
;;; /home/sdcc-builder/build/sdcc-build/orig/sdcc/src/pic14/gen.c:2086:genCall *{*
;; ***	genCall  2088
;;; /home/sdcc-builder/build/sdcc-build/orig/sdcc/src/pic14/gen.c:1801:saveRegisters *{*
;; ***	saveRegisters  1803
;; 	2135 left AOP_LIT
;;; /home/sdcc-builder/build/sdcc-build/orig/sdcc/src/pic14/gen.c:1343:mov2w_op *{*
;; >>> /home/sdcc-builder/build/sdcc-build/orig/sdcc/src/pic14/gen.c:1361:mov2w_op
_00144_DS_
	.line	84; "led.c"	ret = GPIO_GetPortPinState(PORT_B, 1);
	MOVLW	0x01
;; 	2135 left AOP_LIT
;; >>> /home/sdcc-builder/build/sdcc-build/orig/sdcc/src/pic14/gen.c:2143:genCall
;; ***	popRegFromIdx,1042  , rIdx=0x7f
	MOVWF	STK00
;;; /home/sdcc-builder/build/sdcc-build/orig/sdcc/src/pic14/gen.c:1343:mov2w_op *{*
;; >>> /home/sdcc-builder/build/sdcc-build/orig/sdcc/src/pic14/gen.c:1361:mov2w_op
	MOVLW	0x01
;; >>> /home/sdcc-builder/build/sdcc-build/orig/sdcc/src/pic14/gen.c:2173:genCall
	PAGESEL	_GPIO_GetPortPinState
;; >>> /home/sdcc-builder/build/sdcc-build/orig/sdcc/src/pic14/gen.c:2175:genCall
	CALL	_GPIO_GetPortPinState
;; >>> /home/sdcc-builder/build/sdcc-build/orig/sdcc/src/pic14/gen.c:2181:genCall
	PAGESEL	$
;;	694 register type nRegs=1
;;; /home/sdcc-builder/build/sdcc-build/orig/sdcc/src/pic14/gen.c:1907:assignResultValue *{*
;; ***	assignResultValue  1909
;; 	line = 1911 result -=-, size=0, left AOP_REG=r0x104D, size=1, right -=-, size=0
;; >>> /home/sdcc-builder/build/sdcc-build/orig/sdcc/src/pic14/gen.c:1393:movwf
;;	1109 rIdx = r0x104D 
	BANKSEL	r0x1001
	MOVWF	r0x1001
;; 	2195 left AOP_REG
;;; /home/sdcc-builder/build/sdcc-build/orig/sdcc/src/pic14/gen.c:1845:unsaveRegisters *{*
;; ***	unsaveRegisters  1847
;;; /home/sdcc-builder/build/sdcc-build/orig/sdcc/src/pic14/gen.c:2316:resultRemat *{*
;;; /home/sdcc-builder/build/sdcc-build/orig/sdcc/src/pic14/gen.c:2778:genGoto *{*
;; >>> /home/sdcc-builder/build/sdcc-build/orig/sdcc/src/pic14/gen.c:2780:genGoto
;; ***	popGetLabel  key=6, label offset 42
	.line	85; "led.c"	break;
	GOTO	_00148_DS_
;;; /home/sdcc-builder/build/sdcc-build/orig/sdcc/src/pic14/gen.c:2316:resultRemat *{*
;;; /home/sdcc-builder/build/sdcc-build/orig/sdcc/src/pic14/gen.c:2760:genLabel *{*
;; ***	genLabel  2763
;;; /home/sdcc-builder/build/sdcc-build/orig/sdcc/src/pic14/gen.c:2316:resultRemat *{*
;;; /home/sdcc-builder/build/sdcc-build/orig/sdcc/src/pic14/gen.c:2316:resultRemat *{*
;;; /home/sdcc-builder/build/sdcc-build/orig/sdcc/src/pic14/gen.c:2316:resultRemat *{*
;;; /home/sdcc-builder/build/sdcc-build/orig/sdcc/src/pic14/gen.c:2086:genCall *{*
;; ***	genCall  2088
;;; /home/sdcc-builder/build/sdcc-build/orig/sdcc/src/pic14/gen.c:1801:saveRegisters *{*
;; ***	saveRegisters  1803
;; 	2135 left AOP_LIT
;;; /home/sdcc-builder/build/sdcc-build/orig/sdcc/src/pic14/gen.c:1343:mov2w_op *{*
;; >>> /home/sdcc-builder/build/sdcc-build/orig/sdcc/src/pic14/gen.c:1361:mov2w_op
_00145_DS_
	.line	88; "led.c"	ret = GPIO_GetPortPinState(PORT_B, 2);
	MOVLW	0x02
;; 	2135 left AOP_LIT
;; >>> /home/sdcc-builder/build/sdcc-build/orig/sdcc/src/pic14/gen.c:2143:genCall
;; ***	popRegFromIdx,1042  , rIdx=0x7f
	MOVWF	STK00
;;; /home/sdcc-builder/build/sdcc-build/orig/sdcc/src/pic14/gen.c:1343:mov2w_op *{*
;; >>> /home/sdcc-builder/build/sdcc-build/orig/sdcc/src/pic14/gen.c:1361:mov2w_op
	MOVLW	0x01
;; >>> /home/sdcc-builder/build/sdcc-build/orig/sdcc/src/pic14/gen.c:2173:genCall
	PAGESEL	_GPIO_GetPortPinState
;; >>> /home/sdcc-builder/build/sdcc-build/orig/sdcc/src/pic14/gen.c:2175:genCall
	CALL	_GPIO_GetPortPinState
;; >>> /home/sdcc-builder/build/sdcc-build/orig/sdcc/src/pic14/gen.c:2181:genCall
	PAGESEL	$
;;	694 register type nRegs=1
;;; /home/sdcc-builder/build/sdcc-build/orig/sdcc/src/pic14/gen.c:1907:assignResultValue *{*
;; ***	assignResultValue  1909
;; 	line = 1911 result -=-, size=0, left AOP_REG=r0x104D, size=1, right -=-, size=0
;; >>> /home/sdcc-builder/build/sdcc-build/orig/sdcc/src/pic14/gen.c:1393:movwf
;;	1109 rIdx = r0x104D 
	BANKSEL	r0x1001
	MOVWF	r0x1001
;; 	2195 left AOP_REG
;;; /home/sdcc-builder/build/sdcc-build/orig/sdcc/src/pic14/gen.c:1845:unsaveRegisters *{*
;; ***	unsaveRegisters  1847
;;; /home/sdcc-builder/build/sdcc-build/orig/sdcc/src/pic14/gen.c:2316:resultRemat *{*
;;; /home/sdcc-builder/build/sdcc-build/orig/sdcc/src/pic14/gen.c:2778:genGoto *{*
;; >>> /home/sdcc-builder/build/sdcc-build/orig/sdcc/src/pic14/gen.c:2780:genGoto
;; ***	popGetLabel  key=6, label offset 42
	.line	89; "led.c"	break;
	GOTO	_00148_DS_
;;; /home/sdcc-builder/build/sdcc-build/orig/sdcc/src/pic14/gen.c:2316:resultRemat *{*
;;; /home/sdcc-builder/build/sdcc-build/orig/sdcc/src/pic14/gen.c:2760:genLabel *{*
;; ***	genLabel  2763
;;; /home/sdcc-builder/build/sdcc-build/orig/sdcc/src/pic14/gen.c:2316:resultRemat *{*
;;; /home/sdcc-builder/build/sdcc-build/orig/sdcc/src/pic14/gen.c:2316:resultRemat *{*
;;; /home/sdcc-builder/build/sdcc-build/orig/sdcc/src/pic14/gen.c:2316:resultRemat *{*
;;; /home/sdcc-builder/build/sdcc-build/orig/sdcc/src/pic14/gen.c:2086:genCall *{*
;; ***	genCall  2088
;;; /home/sdcc-builder/build/sdcc-build/orig/sdcc/src/pic14/gen.c:1801:saveRegisters *{*
;; ***	saveRegisters  1803
;; 	2135 left AOP_LIT
;;; /home/sdcc-builder/build/sdcc-build/orig/sdcc/src/pic14/gen.c:1343:mov2w_op *{*
;; >>> /home/sdcc-builder/build/sdcc-build/orig/sdcc/src/pic14/gen.c:1361:mov2w_op
_00146_DS_
	.line	92; "led.c"	ret = GPIO_GetPortPinState(PORT_B, 3);
	MOVLW	0x03
;; 	2135 left AOP_LIT
;; >>> /home/sdcc-builder/build/sdcc-build/orig/sdcc/src/pic14/gen.c:2143:genCall
;; ***	popRegFromIdx,1042  , rIdx=0x7f
	MOVWF	STK00
;;; /home/sdcc-builder/build/sdcc-build/orig/sdcc/src/pic14/gen.c:1343:mov2w_op *{*
;; >>> /home/sdcc-builder/build/sdcc-build/orig/sdcc/src/pic14/gen.c:1361:mov2w_op
	MOVLW	0x01
;; >>> /home/sdcc-builder/build/sdcc-build/orig/sdcc/src/pic14/gen.c:2173:genCall
	PAGESEL	_GPIO_GetPortPinState
;; >>> /home/sdcc-builder/build/sdcc-build/orig/sdcc/src/pic14/gen.c:2175:genCall
	CALL	_GPIO_GetPortPinState
;; >>> /home/sdcc-builder/build/sdcc-build/orig/sdcc/src/pic14/gen.c:2181:genCall
	PAGESEL	$
;;	694 register type nRegs=1
;;; /home/sdcc-builder/build/sdcc-build/orig/sdcc/src/pic14/gen.c:1907:assignResultValue *{*
;; ***	assignResultValue  1909
;; 	line = 1911 result -=-, size=0, left AOP_REG=r0x104D, size=1, right -=-, size=0
;; >>> /home/sdcc-builder/build/sdcc-build/orig/sdcc/src/pic14/gen.c:1393:movwf
;;	1109 rIdx = r0x104D 
	BANKSEL	r0x1001
	MOVWF	r0x1001
;; 	2195 left AOP_REG
;;; /home/sdcc-builder/build/sdcc-build/orig/sdcc/src/pic14/gen.c:1845:unsaveRegisters *{*
;; ***	unsaveRegisters  1847
;;; /home/sdcc-builder/build/sdcc-build/orig/sdcc/src/pic14/gen.c:2316:resultRemat *{*
;;; /home/sdcc-builder/build/sdcc-build/orig/sdcc/src/pic14/gen.c:2760:genLabel *{*
;; ***	genLabel  2763
;;; /home/sdcc-builder/build/sdcc-build/orig/sdcc/src/pic14/gen.c:2316:resultRemat *{*
;;; /home/sdcc-builder/build/sdcc-build/orig/sdcc/src/pic14/gen.c:2683:genRet *{*
;; ***	genRet  2685
;;	694 register type nRegs=1
;;; /home/sdcc-builder/build/sdcc-build/orig/sdcc/src/pic14/gen.c:1343:mov2w_op *{*
;; ***	mov2w  1381  offset=0
;; >>> /home/sdcc-builder/build/sdcc-build/orig/sdcc/src/pic14/gen.c:1386:mov2w
;;	1109 rIdx = r0x104D 
_00148_DS_
	.line	99; "led.c"	return ret;
	BANKSEL	r0x1001
	MOVF	r0x1001,W
;;; /home/sdcc-builder/build/sdcc-build/orig/sdcc/src/pic14/gen.c:2316:resultRemat *{*
;;; /home/sdcc-builder/build/sdcc-build/orig/sdcc/src/pic14/gen.c:2760:genLabel *{*
;; ***	genLabel  2763
;;; /home/sdcc-builder/build/sdcc-build/orig/sdcc/src/pic14/gen.c:2316:resultRemat *{*
;;; /home/sdcc-builder/build/sdcc-build/orig/sdcc/src/pic14/gen.c:2528:genEndFunction *{*
;; ***	genEndFunction  2530
	RETURN	
; exit point of _LED_GetState
;;; /home/sdcc-builder/build/sdcc-build/orig/sdcc/src/pic14/gen.c:7426:genpic14Code *{*

;***
;  pBlock Stats: dbName = C
;***
;entry:  _LED_SetState	;Function start
; 2 exit points
;has an exit
;functions called:
;   _GPIO_SetPortPinState
;   _GPIO_SetPortPinState
;   _GPIO_SetPortPinState
;   _GPIO_SetPortPinState
;   _GPIO_SetPortPinState
;   _GPIO_SetPortPinState
;   _GPIO_SetPortPinState
;   _GPIO_SetPortPinState
;4 compiler assigned registers:
;   r0x1000
;   STK00
;   r0x1001
;   STK01
;; Starting pCode block
;;; /home/sdcc-builder/build/sdcc-build/orig/sdcc/src/pic14/gen.c:2316:resultRemat *{*
;;; /home/sdcc-builder/build/sdcc-build/orig/sdcc/src/pic14/gen.c:2760:genLabel *{*
;; ***	genLabel  2763
;;; /home/sdcc-builder/build/sdcc-build/orig/sdcc/src/pic14/gen.c:2316:resultRemat *{*
;;; /home/sdcc-builder/build/sdcc-build/orig/sdcc/src/pic14/gen.c:2340:genFunction *{*
;; ***	genFunction  2342 curr label offset=21previous max_key=0 
_LED_SetState	;Function start
; 2 exit points
;;; /home/sdcc-builder/build/sdcc-build/orig/sdcc/src/pic14/gen.c:2316:resultRemat *{*
;;; /home/sdcc-builder/build/sdcc-build/orig/sdcc/src/pic14/gen.c:7358:genReceive *{*
;; ***	genReceive  7359
;;	694 register type nRegs=1
;;; /home/sdcc-builder/build/sdcc-build/orig/sdcc/src/pic14/gen.c:1907:assignResultValue *{*
;; ***	assignResultValue  1909
;; 	line = 1911 result -=-, size=0, left AOP_REG=r0x104A, size=1, right -=-, size=0
;; >>> /home/sdcc-builder/build/sdcc-build/orig/sdcc/src/pic14/gen.c:1393:movwf
;;	1109 rIdx = r0x104A 
	.line	46; "led.c"	void LED_SetState(tLED led, tLED_State state)
	BANKSEL	r0x1000
	MOVWF	r0x1000
;;; /home/sdcc-builder/build/sdcc-build/orig/sdcc/src/pic14/gen.c:2316:resultRemat *{*
;;; /home/sdcc-builder/build/sdcc-build/orig/sdcc/src/pic14/gen.c:7358:genReceive *{*
;; ***	genReceive  7359
;;	694 register type nRegs=1
;;; /home/sdcc-builder/build/sdcc-build/orig/sdcc/src/pic14/gen.c:1907:assignResultValue *{*
;; ***	assignResultValue  1909
;; 	line = 1911 result -=-, size=0, left AOP_REG=r0x104B, size=1, right -=-, size=0
;; >>> /home/sdcc-builder/build/sdcc-build/orig/sdcc/src/pic14/gen.c:1423:get_returnvalue
;; ***	popRegFromIdx,1042  , rIdx=0x7f
	MOVF	STK00,W
;; >>> /home/sdcc-builder/build/sdcc-build/orig/sdcc/src/pic14/gen.c:1393:movwf
;;	1109 rIdx = r0x104B 
	MOVWF	r0x1001
;;; /home/sdcc-builder/build/sdcc-build/orig/sdcc/src/pic14/gen.c:2316:resultRemat *{*
;;; /home/sdcc-builder/build/sdcc-build/orig/sdcc/src/pic14/gen.c:3547:genCmpGt *{*
;; ***	genCmpGt  3548
;;	694 register type nRegs=1
;;; /home/sdcc-builder/build/sdcc-build/orig/sdcc/src/pic14/gen.c:3294:genCmp *{*
;;swapping arguments (AOP_TYPEs 1/2)
;;unsigned compare: left >= lit(0x4=4), size=1
;; >>> /home/sdcc-builder/build/sdcc-build/orig/sdcc/src/pic14/gen.c:3265:pic14_mov2w_regOrLit
	.line	48; "led.c"	switch(led)
	MOVLW	0x04
;; >>> /home/sdcc-builder/build/sdcc-build/orig/sdcc/src/pic14/gen.c:3432:genCmp
;;	1109 rIdx = r0x104A 
	SUBWF	r0x1000,W
;;; /home/sdcc-builder/build/sdcc-build/orig/sdcc/src/pic14/gen.c:3237:genSkipc *{*
;; >>> /home/sdcc-builder/build/sdcc-build/orig/sdcc/src/pic14/gen.c:3242:genSkipc
	BTFSC	STATUS,0
;; >>> /home/sdcc-builder/build/sdcc-build/orig/sdcc/src/pic14/gen.c:3246:genSkipc
;; ***	popGetLabel  key=7, label offset 25
	GOTO	_00132_DS_
;;genSkipc:3247: created from rifx:027A5DF4
;;; /home/sdcc-builder/build/sdcc-build/orig/sdcc/src/pic14/gen.c:2316:resultRemat *{*
;;; /home/sdcc-builder/build/sdcc-build/orig/sdcc/src/pic14/gen.c:2316:resultRemat *{*
;;; /home/sdcc-builder/build/sdcc-build/orig/sdcc/src/pic14/gen.c:7071:genJumpTab *{*
;; ***	genJumpTab  7072
;;	694 register type nRegs=1
;; >>> /home/sdcc-builder/build/sdcc-build/orig/sdcc/src/pic14/gen.c:7087:genJumpTab
;; ***	popGetLabel  key=13, label offset 25
	MOVLW	HIGH(_00138_DS_)
;; >>> /home/sdcc-builder/build/sdcc-build/orig/sdcc/src/pic14/gen.c:7088:genJumpTab
	BANKSEL	PCLATH
	MOVWF	PCLATH
;; >>> /home/sdcc-builder/build/sdcc-build/orig/sdcc/src/pic14/gen.c:7089:genJumpTab
;; ***	popGetLabel  key=13, label offset 25
	MOVLW	_00138_DS_
;; >>> /home/sdcc-builder/build/sdcc-build/orig/sdcc/src/pic14/gen.c:7090:genJumpTab
;;	1109 rIdx = r0x104A 
	BANKSEL	r0x1000
	ADDWF	r0x1000,W
;; >>> /home/sdcc-builder/build/sdcc-build/orig/sdcc/src/pic14/gen.c:7091:genJumpTab
	BTFSS	STATUS,0
	GOTO	_00002_DS_
;; >>> /home/sdcc-builder/build/sdcc-build/orig/sdcc/src/pic14/gen.c:7092:genJumpTab
	BANKSEL	PCLATH
	INCF	PCLATH,F
;; >>> /home/sdcc-builder/build/sdcc-build/orig/sdcc/src/pic14/gen.c:7093:genJumpTab
_00002_DS_
	MOVWF	PCL
;; >>> /home/sdcc-builder/build/sdcc-build/orig/sdcc/src/pic14/gen.c:7102:genJumpTab
;; ***	popGetLabel  key=1, label offset 25
_00138_DS_
	GOTO	_00126_DS_
;; >>> /home/sdcc-builder/build/sdcc-build/orig/sdcc/src/pic14/gen.c:7102:genJumpTab
;; ***	popGetLabel  key=2, label offset 25
	GOTO	_00127_DS_
;; >>> /home/sdcc-builder/build/sdcc-build/orig/sdcc/src/pic14/gen.c:7102:genJumpTab
;; ***	popGetLabel  key=3, label offset 25
	GOTO	_00128_DS_
;; >>> /home/sdcc-builder/build/sdcc-build/orig/sdcc/src/pic14/gen.c:7102:genJumpTab
;; ***	popGetLabel  key=4, label offset 25
	GOTO	_00129_DS_
;;; /home/sdcc-builder/build/sdcc-build/orig/sdcc/src/pic14/gen.c:2316:resultRemat *{*
;;; /home/sdcc-builder/build/sdcc-build/orig/sdcc/src/pic14/gen.c:2760:genLabel *{*
;; ***	genLabel  2763
;;; /home/sdcc-builder/build/sdcc-build/orig/sdcc/src/pic14/gen.c:2316:resultRemat *{*
;;; /home/sdcc-builder/build/sdcc-build/orig/sdcc/src/pic14/gen.c:2316:resultRemat *{*
;;; /home/sdcc-builder/build/sdcc-build/orig/sdcc/src/pic14/gen.c:2316:resultRemat *{*
;;; /home/sdcc-builder/build/sdcc-build/orig/sdcc/src/pic14/gen.c:2316:resultRemat *{*
;;; /home/sdcc-builder/build/sdcc-build/orig/sdcc/src/pic14/gen.c:2086:genCall *{*
;; ***	genCall  2088
;;; /home/sdcc-builder/build/sdcc-build/orig/sdcc/src/pic14/gen.c:1801:saveRegisters *{*
;; ***	saveRegisters  1803
;;	694 register type nRegs=1
;;	694 register type nRegs=1
;; 	2135 left AOP_REG
;;; /home/sdcc-builder/build/sdcc-build/orig/sdcc/src/pic14/gen.c:1343:mov2w_op *{*
;; ***	mov2w  1381  offset=0
;; >>> /home/sdcc-builder/build/sdcc-build/orig/sdcc/src/pic14/gen.c:1386:mov2w
;;	1109 rIdx = r0x104B 
_00126_DS_
	.line	52; "led.c"	GPIO_SetPortPinState(PORT_B, 0, state);
	BANKSEL	r0x1001
	MOVF	r0x1001,W
;; 	2135 left AOP_LIT
;; >>> /home/sdcc-builder/build/sdcc-build/orig/sdcc/src/pic14/gen.c:2143:genCall
;; ***	popRegFromIdx,1042  , rIdx=0x7e
	MOVWF	STK01
;;; /home/sdcc-builder/build/sdcc-build/orig/sdcc/src/pic14/gen.c:1343:mov2w_op *{*
;; >>> /home/sdcc-builder/build/sdcc-build/orig/sdcc/src/pic14/gen.c:1361:mov2w_op
	MOVLW	0x00
;; 	2135 left AOP_LIT
;; >>> /home/sdcc-builder/build/sdcc-build/orig/sdcc/src/pic14/gen.c:2143:genCall
;; ***	popRegFromIdx,1042  , rIdx=0x7f
	MOVWF	STK00
;;; /home/sdcc-builder/build/sdcc-build/orig/sdcc/src/pic14/gen.c:1343:mov2w_op *{*
;; >>> /home/sdcc-builder/build/sdcc-build/orig/sdcc/src/pic14/gen.c:1361:mov2w_op
	MOVLW	0x01
;; >>> /home/sdcc-builder/build/sdcc-build/orig/sdcc/src/pic14/gen.c:2173:genCall
	PAGESEL	_GPIO_SetPortPinState
;; >>> /home/sdcc-builder/build/sdcc-build/orig/sdcc/src/pic14/gen.c:2175:genCall
	CALL	_GPIO_SetPortPinState
;; >>> /home/sdcc-builder/build/sdcc-build/orig/sdcc/src/pic14/gen.c:2181:genCall
	PAGESEL	$
;;; /home/sdcc-builder/build/sdcc-build/orig/sdcc/src/pic14/gen.c:1845:unsaveRegisters *{*
;; ***	unsaveRegisters  1847
;;; /home/sdcc-builder/build/sdcc-build/orig/sdcc/src/pic14/gen.c:2316:resultRemat *{*
;;; /home/sdcc-builder/build/sdcc-build/orig/sdcc/src/pic14/gen.c:2778:genGoto *{*
;; >>> /home/sdcc-builder/build/sdcc-build/orig/sdcc/src/pic14/gen.c:2780:genGoto
;; ***	popGetLabel  key=7, label offset 25
	.line	53; "led.c"	break;
	GOTO	_00132_DS_
;;; /home/sdcc-builder/build/sdcc-build/orig/sdcc/src/pic14/gen.c:2316:resultRemat *{*
;;; /home/sdcc-builder/build/sdcc-build/orig/sdcc/src/pic14/gen.c:2760:genLabel *{*
;; ***	genLabel  2763
;;; /home/sdcc-builder/build/sdcc-build/orig/sdcc/src/pic14/gen.c:2316:resultRemat *{*
;;; /home/sdcc-builder/build/sdcc-build/orig/sdcc/src/pic14/gen.c:2316:resultRemat *{*
;;; /home/sdcc-builder/build/sdcc-build/orig/sdcc/src/pic14/gen.c:2316:resultRemat *{*
;;; /home/sdcc-builder/build/sdcc-build/orig/sdcc/src/pic14/gen.c:2316:resultRemat *{*
;;; /home/sdcc-builder/build/sdcc-build/orig/sdcc/src/pic14/gen.c:2086:genCall *{*
;; ***	genCall  2088
;;; /home/sdcc-builder/build/sdcc-build/orig/sdcc/src/pic14/gen.c:1801:saveRegisters *{*
;; ***	saveRegisters  1803
;;	694 register type nRegs=1
;;	694 register type nRegs=1
;; 	2135 left AOP_REG
;;; /home/sdcc-builder/build/sdcc-build/orig/sdcc/src/pic14/gen.c:1343:mov2w_op *{*
;; ***	mov2w  1381  offset=0
;; >>> /home/sdcc-builder/build/sdcc-build/orig/sdcc/src/pic14/gen.c:1386:mov2w
;;	1109 rIdx = r0x104B 
_00127_DS_
	.line	56; "led.c"	GPIO_SetPortPinState(PORT_B, 1, state);
	BANKSEL	r0x1001
	MOVF	r0x1001,W
;; 	2135 left AOP_LIT
;; >>> /home/sdcc-builder/build/sdcc-build/orig/sdcc/src/pic14/gen.c:2143:genCall
;; ***	popRegFromIdx,1042  , rIdx=0x7e
	MOVWF	STK01
;;; /home/sdcc-builder/build/sdcc-build/orig/sdcc/src/pic14/gen.c:1343:mov2w_op *{*
;; >>> /home/sdcc-builder/build/sdcc-build/orig/sdcc/src/pic14/gen.c:1361:mov2w_op
	MOVLW	0x01
;; 	2135 left AOP_LIT
;; >>> /home/sdcc-builder/build/sdcc-build/orig/sdcc/src/pic14/gen.c:2143:genCall
;; ***	popRegFromIdx,1042  , rIdx=0x7f
	MOVWF	STK00
;;; /home/sdcc-builder/build/sdcc-build/orig/sdcc/src/pic14/gen.c:1343:mov2w_op *{*
;; >>> /home/sdcc-builder/build/sdcc-build/orig/sdcc/src/pic14/gen.c:1361:mov2w_op
	MOVLW	0x01
;; >>> /home/sdcc-builder/build/sdcc-build/orig/sdcc/src/pic14/gen.c:2173:genCall
	PAGESEL	_GPIO_SetPortPinState
;; >>> /home/sdcc-builder/build/sdcc-build/orig/sdcc/src/pic14/gen.c:2175:genCall
	CALL	_GPIO_SetPortPinState
;; >>> /home/sdcc-builder/build/sdcc-build/orig/sdcc/src/pic14/gen.c:2181:genCall
	PAGESEL	$
;;; /home/sdcc-builder/build/sdcc-build/orig/sdcc/src/pic14/gen.c:1845:unsaveRegisters *{*
;; ***	unsaveRegisters  1847
;;; /home/sdcc-builder/build/sdcc-build/orig/sdcc/src/pic14/gen.c:2316:resultRemat *{*
;;; /home/sdcc-builder/build/sdcc-build/orig/sdcc/src/pic14/gen.c:2778:genGoto *{*
;; >>> /home/sdcc-builder/build/sdcc-build/orig/sdcc/src/pic14/gen.c:2780:genGoto
;; ***	popGetLabel  key=7, label offset 25
	.line	57; "led.c"	break;
	GOTO	_00132_DS_
;;; /home/sdcc-builder/build/sdcc-build/orig/sdcc/src/pic14/gen.c:2316:resultRemat *{*
;;; /home/sdcc-builder/build/sdcc-build/orig/sdcc/src/pic14/gen.c:2760:genLabel *{*
;; ***	genLabel  2763
;;; /home/sdcc-builder/build/sdcc-build/orig/sdcc/src/pic14/gen.c:2316:resultRemat *{*
;;; /home/sdcc-builder/build/sdcc-build/orig/sdcc/src/pic14/gen.c:2316:resultRemat *{*
;;; /home/sdcc-builder/build/sdcc-build/orig/sdcc/src/pic14/gen.c:2316:resultRemat *{*
;;; /home/sdcc-builder/build/sdcc-build/orig/sdcc/src/pic14/gen.c:2316:resultRemat *{*
;;; /home/sdcc-builder/build/sdcc-build/orig/sdcc/src/pic14/gen.c:2086:genCall *{*
;; ***	genCall  2088
;;; /home/sdcc-builder/build/sdcc-build/orig/sdcc/src/pic14/gen.c:1801:saveRegisters *{*
;; ***	saveRegisters  1803
;;	694 register type nRegs=1
;;	694 register type nRegs=1
;; 	2135 left AOP_REG
;;; /home/sdcc-builder/build/sdcc-build/orig/sdcc/src/pic14/gen.c:1343:mov2w_op *{*
;; ***	mov2w  1381  offset=0
;; >>> /home/sdcc-builder/build/sdcc-build/orig/sdcc/src/pic14/gen.c:1386:mov2w
;;	1109 rIdx = r0x104B 
_00128_DS_
	.line	60; "led.c"	GPIO_SetPortPinState(PORT_B, 2, state);
	BANKSEL	r0x1001
	MOVF	r0x1001,W
;; 	2135 left AOP_LIT
;; >>> /home/sdcc-builder/build/sdcc-build/orig/sdcc/src/pic14/gen.c:2143:genCall
;; ***	popRegFromIdx,1042  , rIdx=0x7e
	MOVWF	STK01
;;; /home/sdcc-builder/build/sdcc-build/orig/sdcc/src/pic14/gen.c:1343:mov2w_op *{*
;; >>> /home/sdcc-builder/build/sdcc-build/orig/sdcc/src/pic14/gen.c:1361:mov2w_op
	MOVLW	0x02
;; 	2135 left AOP_LIT
;; >>> /home/sdcc-builder/build/sdcc-build/orig/sdcc/src/pic14/gen.c:2143:genCall
;; ***	popRegFromIdx,1042  , rIdx=0x7f
	MOVWF	STK00
;;; /home/sdcc-builder/build/sdcc-build/orig/sdcc/src/pic14/gen.c:1343:mov2w_op *{*
;; >>> /home/sdcc-builder/build/sdcc-build/orig/sdcc/src/pic14/gen.c:1361:mov2w_op
	MOVLW	0x01
;; >>> /home/sdcc-builder/build/sdcc-build/orig/sdcc/src/pic14/gen.c:2173:genCall
	PAGESEL	_GPIO_SetPortPinState
;; >>> /home/sdcc-builder/build/sdcc-build/orig/sdcc/src/pic14/gen.c:2175:genCall
	CALL	_GPIO_SetPortPinState
;; >>> /home/sdcc-builder/build/sdcc-build/orig/sdcc/src/pic14/gen.c:2181:genCall
	PAGESEL	$
;;; /home/sdcc-builder/build/sdcc-build/orig/sdcc/src/pic14/gen.c:1845:unsaveRegisters *{*
;; ***	unsaveRegisters  1847
;;; /home/sdcc-builder/build/sdcc-build/orig/sdcc/src/pic14/gen.c:2316:resultRemat *{*
;;; /home/sdcc-builder/build/sdcc-build/orig/sdcc/src/pic14/gen.c:2778:genGoto *{*
;; >>> /home/sdcc-builder/build/sdcc-build/orig/sdcc/src/pic14/gen.c:2780:genGoto
;; ***	popGetLabel  key=7, label offset 25
	.line	61; "led.c"	break;
	GOTO	_00132_DS_
;;; /home/sdcc-builder/build/sdcc-build/orig/sdcc/src/pic14/gen.c:2316:resultRemat *{*
;;; /home/sdcc-builder/build/sdcc-build/orig/sdcc/src/pic14/gen.c:2760:genLabel *{*
;; ***	genLabel  2763
;;; /home/sdcc-builder/build/sdcc-build/orig/sdcc/src/pic14/gen.c:2316:resultRemat *{*
;;; /home/sdcc-builder/build/sdcc-build/orig/sdcc/src/pic14/gen.c:2316:resultRemat *{*
;;; /home/sdcc-builder/build/sdcc-build/orig/sdcc/src/pic14/gen.c:2316:resultRemat *{*
;;; /home/sdcc-builder/build/sdcc-build/orig/sdcc/src/pic14/gen.c:2316:resultRemat *{*
;;; /home/sdcc-builder/build/sdcc-build/orig/sdcc/src/pic14/gen.c:2086:genCall *{*
;; ***	genCall  2088
;;; /home/sdcc-builder/build/sdcc-build/orig/sdcc/src/pic14/gen.c:1801:saveRegisters *{*
;; ***	saveRegisters  1803
;;	694 register type nRegs=1
;;	694 register type nRegs=1
;; 	2135 left AOP_REG
;;; /home/sdcc-builder/build/sdcc-build/orig/sdcc/src/pic14/gen.c:1343:mov2w_op *{*
;; ***	mov2w  1381  offset=0
;; >>> /home/sdcc-builder/build/sdcc-build/orig/sdcc/src/pic14/gen.c:1386:mov2w
;;	1109 rIdx = r0x104B 
_00129_DS_
	.line	64; "led.c"	GPIO_SetPortPinState(PORT_B, 3, state);
	BANKSEL	r0x1001
	MOVF	r0x1001,W
;; 	2135 left AOP_LIT
;; >>> /home/sdcc-builder/build/sdcc-build/orig/sdcc/src/pic14/gen.c:2143:genCall
;; ***	popRegFromIdx,1042  , rIdx=0x7e
	MOVWF	STK01
;;; /home/sdcc-builder/build/sdcc-build/orig/sdcc/src/pic14/gen.c:1343:mov2w_op *{*
;; >>> /home/sdcc-builder/build/sdcc-build/orig/sdcc/src/pic14/gen.c:1361:mov2w_op
	MOVLW	0x03
;; 	2135 left AOP_LIT
;; >>> /home/sdcc-builder/build/sdcc-build/orig/sdcc/src/pic14/gen.c:2143:genCall
;; ***	popRegFromIdx,1042  , rIdx=0x7f
	MOVWF	STK00
;;; /home/sdcc-builder/build/sdcc-build/orig/sdcc/src/pic14/gen.c:1343:mov2w_op *{*
;; >>> /home/sdcc-builder/build/sdcc-build/orig/sdcc/src/pic14/gen.c:1361:mov2w_op
	MOVLW	0x01
;; >>> /home/sdcc-builder/build/sdcc-build/orig/sdcc/src/pic14/gen.c:2173:genCall
	PAGESEL	_GPIO_SetPortPinState
;; >>> /home/sdcc-builder/build/sdcc-build/orig/sdcc/src/pic14/gen.c:2175:genCall
	CALL	_GPIO_SetPortPinState
;; >>> /home/sdcc-builder/build/sdcc-build/orig/sdcc/src/pic14/gen.c:2181:genCall
	PAGESEL	$
;;; /home/sdcc-builder/build/sdcc-build/orig/sdcc/src/pic14/gen.c:1845:unsaveRegisters *{*
;; ***	unsaveRegisters  1847
;;; /home/sdcc-builder/build/sdcc-build/orig/sdcc/src/pic14/gen.c:2316:resultRemat *{*
;;; /home/sdcc-builder/build/sdcc-build/orig/sdcc/src/pic14/gen.c:2760:genLabel *{*
;; ***	genLabel  2763
;;; /home/sdcc-builder/build/sdcc-build/orig/sdcc/src/pic14/gen.c:2316:resultRemat *{*
;;; /home/sdcc-builder/build/sdcc-build/orig/sdcc/src/pic14/gen.c:2528:genEndFunction *{*
;; ***	genEndFunction  2530
_00132_DS_
	.line	69; "led.c"	}
	RETURN	
; exit point of _LED_SetState
;;; /home/sdcc-builder/build/sdcc-build/orig/sdcc/src/pic14/gen.c:7426:genpic14Code *{*

;***
;  pBlock Stats: dbName = C
;***
;entry:  _LED_Update	;Function start
; 2 exit points
;has an exit
;functions called:
;   _LED_Toggle
;   _UTIL_DelayMS
;   _LED_Toggle
;   _UTIL_DelayMS
;; Starting pCode block
;;; /home/sdcc-builder/build/sdcc-build/orig/sdcc/src/pic14/gen.c:2316:resultRemat *{*
;;; /home/sdcc-builder/build/sdcc-build/orig/sdcc/src/pic14/gen.c:2760:genLabel *{*
;; ***	genLabel  2763
;;; /home/sdcc-builder/build/sdcc-build/orig/sdcc/src/pic14/gen.c:2316:resultRemat *{*
;;; /home/sdcc-builder/build/sdcc-build/orig/sdcc/src/pic14/gen.c:2340:genFunction *{*
;; ***	genFunction  2342 curr label offset=4previous max_key=13 
_LED_Update	;Function start
; 2 exit points
;;; /home/sdcc-builder/build/sdcc-build/orig/sdcc/src/pic14/gen.c:2316:resultRemat *{*
;;; /home/sdcc-builder/build/sdcc-build/orig/sdcc/src/pic14/gen.c:2316:resultRemat *{*
;;; /home/sdcc-builder/build/sdcc-build/orig/sdcc/src/pic14/gen.c:2086:genCall *{*
;; ***	genCall  2088
;;; /home/sdcc-builder/build/sdcc-build/orig/sdcc/src/pic14/gen.c:1801:saveRegisters *{*
;; ***	saveRegisters  1803
;; 	2135 left AOP_LIT
;;; /home/sdcc-builder/build/sdcc-build/orig/sdcc/src/pic14/gen.c:1343:mov2w_op *{*
;; >>> /home/sdcc-builder/build/sdcc-build/orig/sdcc/src/pic14/gen.c:1361:mov2w_op
	.line	42; "led.c"	LED_Toggle(LED_3);
	MOVLW	0x02
;; >>> /home/sdcc-builder/build/sdcc-build/orig/sdcc/src/pic14/gen.c:2175:genCall
	CALL	_LED_Toggle
;;; /home/sdcc-builder/build/sdcc-build/orig/sdcc/src/pic14/gen.c:1845:unsaveRegisters *{*
;; ***	unsaveRegisters  1847
;;; /home/sdcc-builder/build/sdcc-build/orig/sdcc/src/pic14/gen.c:2316:resultRemat *{*
;;; /home/sdcc-builder/build/sdcc-build/orig/sdcc/src/pic14/gen.c:2316:resultRemat *{*
;;; /home/sdcc-builder/build/sdcc-build/orig/sdcc/src/pic14/gen.c:2086:genCall *{*
;; ***	genCall  2088
;;; /home/sdcc-builder/build/sdcc-build/orig/sdcc/src/pic14/gen.c:1801:saveRegisters *{*
;; ***	saveRegisters  1803
;; 	2135 left AOP_LIT
;;; /home/sdcc-builder/build/sdcc-build/orig/sdcc/src/pic14/gen.c:1343:mov2w_op *{*
;; >>> /home/sdcc-builder/build/sdcc-build/orig/sdcc/src/pic14/gen.c:1361:mov2w_op
	.line	43; "led.c"	UTIL_DelayMS(LED_TOGGLE_MS);
	MOVLW	0xe8
;; >>> /home/sdcc-builder/build/sdcc-build/orig/sdcc/src/pic14/gen.c:2173:genCall
	PAGESEL	_UTIL_DelayMS
;; >>> /home/sdcc-builder/build/sdcc-build/orig/sdcc/src/pic14/gen.c:2175:genCall
	CALL	_UTIL_DelayMS
;; >>> /home/sdcc-builder/build/sdcc-build/orig/sdcc/src/pic14/gen.c:2181:genCall
	PAGESEL	$
;;; /home/sdcc-builder/build/sdcc-build/orig/sdcc/src/pic14/gen.c:1845:unsaveRegisters *{*
;; ***	unsaveRegisters  1847
;;; /home/sdcc-builder/build/sdcc-build/orig/sdcc/src/pic14/gen.c:2316:resultRemat *{*
;;; /home/sdcc-builder/build/sdcc-build/orig/sdcc/src/pic14/gen.c:2760:genLabel *{*
;; ***	genLabel  2763
;;; /home/sdcc-builder/build/sdcc-build/orig/sdcc/src/pic14/gen.c:2316:resultRemat *{*
;;; /home/sdcc-builder/build/sdcc-build/orig/sdcc/src/pic14/gen.c:2528:genEndFunction *{*
;; ***	genEndFunction  2530
	RETURN	
; exit point of _LED_Update
;;; /home/sdcc-builder/build/sdcc-build/orig/sdcc/src/pic14/gen.c:7426:genpic14Code *{*

;***
;  pBlock Stats: dbName = C
;***
;entry:  _LED_Init	;Function start
; 2 exit points
;has an exit
;functions called:
;   _GPIO_InitPortPin
;   _GPIO_InitPortPin
;   _GPIO_InitPortPin
;   _GPIO_InitPortPin
;   _LED_SetState
;   _GPIO_InitPortPin
;   _GPIO_InitPortPin
;   _GPIO_InitPortPin
;   _GPIO_InitPortPin
;   _LED_SetState
;4 compiler assigned registers:
;   r0x1004
;   STK00
;   r0x1005
;   STK01
;; Starting pCode block
;;; /home/sdcc-builder/build/sdcc-build/orig/sdcc/src/pic14/gen.c:2316:resultRemat *{*
;;; /home/sdcc-builder/build/sdcc-build/orig/sdcc/src/pic14/gen.c:2760:genLabel *{*
;; ***	genLabel  2763
;;; /home/sdcc-builder/build/sdcc-build/orig/sdcc/src/pic14/gen.c:2316:resultRemat *{*
;;; /home/sdcc-builder/build/sdcc-build/orig/sdcc/src/pic14/gen.c:2340:genFunction *{*
;; ***	genFunction  2342 curr label offset=0previous max_key=0 
_LED_Init	;Function start
; 2 exit points
;;; /home/sdcc-builder/build/sdcc-build/orig/sdcc/src/pic14/gen.c:2316:resultRemat *{*
;;; /home/sdcc-builder/build/sdcc-build/orig/sdcc/src/pic14/gen.c:7358:genReceive *{*
;; ***	genReceive  7359
;;	694 register type nRegs=1
;;; /home/sdcc-builder/build/sdcc-build/orig/sdcc/src/pic14/gen.c:1907:assignResultValue *{*
;; ***	assignResultValue  1909
;; 	line = 1911 result -=-, size=0, left AOP_REG=r0x1048, size=1, right -=-, size=0
;; >>> /home/sdcc-builder/build/sdcc-build/orig/sdcc/src/pic14/gen.c:1393:movwf
;;	1109 rIdx = r0x1048 
	.line	10; "led.c"	void LED_Init(tLED led,tLED_State initial_state)
	BANKSEL	r0x1004
	MOVWF	r0x1004
;;; /home/sdcc-builder/build/sdcc-build/orig/sdcc/src/pic14/gen.c:2316:resultRemat *{*
;;; /home/sdcc-builder/build/sdcc-build/orig/sdcc/src/pic14/gen.c:7358:genReceive *{*
;; ***	genReceive  7359
;;	694 register type nRegs=1
;;; /home/sdcc-builder/build/sdcc-build/orig/sdcc/src/pic14/gen.c:1907:assignResultValue *{*
;; ***	assignResultValue  1909
;; 	line = 1911 result -=-, size=0, left AOP_REG=r0x1049, size=1, right -=-, size=0
;; >>> /home/sdcc-builder/build/sdcc-build/orig/sdcc/src/pic14/gen.c:1423:get_returnvalue
;; ***	popRegFromIdx,1042  , rIdx=0x7f
	MOVF	STK00,W
;; >>> /home/sdcc-builder/build/sdcc-build/orig/sdcc/src/pic14/gen.c:1393:movwf
;;	1109 rIdx = r0x1049 
	MOVWF	r0x1005
;;; /home/sdcc-builder/build/sdcc-build/orig/sdcc/src/pic14/gen.c:2316:resultRemat *{*
;;; /home/sdcc-builder/build/sdcc-build/orig/sdcc/src/pic14/gen.c:3547:genCmpGt *{*
;; ***	genCmpGt  3548
;;	694 register type nRegs=1
;;; /home/sdcc-builder/build/sdcc-build/orig/sdcc/src/pic14/gen.c:3294:genCmp *{*
;;swapping arguments (AOP_TYPEs 1/2)
;;unsigned compare: left >= lit(0x4=4), size=1
;; >>> /home/sdcc-builder/build/sdcc-build/orig/sdcc/src/pic14/gen.c:3265:pic14_mov2w_regOrLit
	.line	13; "led.c"	switch(led)
	MOVLW	0x04
;; >>> /home/sdcc-builder/build/sdcc-build/orig/sdcc/src/pic14/gen.c:3432:genCmp
;;	1109 rIdx = r0x1048 
	SUBWF	r0x1004,W
;;; /home/sdcc-builder/build/sdcc-build/orig/sdcc/src/pic14/gen.c:3237:genSkipc *{*
;; >>> /home/sdcc-builder/build/sdcc-build/orig/sdcc/src/pic14/gen.c:3242:genSkipc
	BTFSC	STATUS,0
;; >>> /home/sdcc-builder/build/sdcc-build/orig/sdcc/src/pic14/gen.c:3246:genSkipc
;; ***	popGetLabel  key=6, label offset 4
	GOTO	_00110_DS_
;;genSkipc:3247: created from rifx:027A5DF4
;;; /home/sdcc-builder/build/sdcc-build/orig/sdcc/src/pic14/gen.c:2316:resultRemat *{*
;;; /home/sdcc-builder/build/sdcc-build/orig/sdcc/src/pic14/gen.c:2316:resultRemat *{*
;;; /home/sdcc-builder/build/sdcc-build/orig/sdcc/src/pic14/gen.c:7071:genJumpTab *{*
;; ***	genJumpTab  7072
;;	694 register type nRegs=1
;; >>> /home/sdcc-builder/build/sdcc-build/orig/sdcc/src/pic14/gen.c:7087:genJumpTab
;; ***	popGetLabel  key=13, label offset 4
	MOVLW	HIGH(_00117_DS_)
;; >>> /home/sdcc-builder/build/sdcc-build/orig/sdcc/src/pic14/gen.c:7088:genJumpTab
	BANKSEL	PCLATH
	MOVWF	PCLATH
;; >>> /home/sdcc-builder/build/sdcc-build/orig/sdcc/src/pic14/gen.c:7089:genJumpTab
;; ***	popGetLabel  key=13, label offset 4
	MOVLW	_00117_DS_
;; >>> /home/sdcc-builder/build/sdcc-build/orig/sdcc/src/pic14/gen.c:7090:genJumpTab
;;	1109 rIdx = r0x1048 
	BANKSEL	r0x1004
	ADDWF	r0x1004,W
;; >>> /home/sdcc-builder/build/sdcc-build/orig/sdcc/src/pic14/gen.c:7091:genJumpTab
	BTFSS	STATUS,0
	GOTO	_00003_DS_
;; >>> /home/sdcc-builder/build/sdcc-build/orig/sdcc/src/pic14/gen.c:7092:genJumpTab
	BANKSEL	PCLATH
	INCF	PCLATH,F
;; >>> /home/sdcc-builder/build/sdcc-build/orig/sdcc/src/pic14/gen.c:7093:genJumpTab
_00003_DS_
	MOVWF	PCL
;; >>> /home/sdcc-builder/build/sdcc-build/orig/sdcc/src/pic14/gen.c:7102:genJumpTab
;; ***	popGetLabel  key=1, label offset 4
_00117_DS_
	GOTO	_00105_DS_
;; >>> /home/sdcc-builder/build/sdcc-build/orig/sdcc/src/pic14/gen.c:7102:genJumpTab
;; ***	popGetLabel  key=2, label offset 4
	GOTO	_00106_DS_
;; >>> /home/sdcc-builder/build/sdcc-build/orig/sdcc/src/pic14/gen.c:7102:genJumpTab
;; ***	popGetLabel  key=3, label offset 4
	GOTO	_00107_DS_
;; >>> /home/sdcc-builder/build/sdcc-build/orig/sdcc/src/pic14/gen.c:7102:genJumpTab
;; ***	popGetLabel  key=4, label offset 4
	GOTO	_00108_DS_
;;; /home/sdcc-builder/build/sdcc-build/orig/sdcc/src/pic14/gen.c:2316:resultRemat *{*
;;; /home/sdcc-builder/build/sdcc-build/orig/sdcc/src/pic14/gen.c:2760:genLabel *{*
;; ***	genLabel  2763
;;; /home/sdcc-builder/build/sdcc-build/orig/sdcc/src/pic14/gen.c:2316:resultRemat *{*
;;; /home/sdcc-builder/build/sdcc-build/orig/sdcc/src/pic14/gen.c:2316:resultRemat *{*
;;; /home/sdcc-builder/build/sdcc-build/orig/sdcc/src/pic14/gen.c:2316:resultRemat *{*
;;; /home/sdcc-builder/build/sdcc-build/orig/sdcc/src/pic14/gen.c:2316:resultRemat *{*
;;; /home/sdcc-builder/build/sdcc-build/orig/sdcc/src/pic14/gen.c:2086:genCall *{*
;; ***	genCall  2088
;;; /home/sdcc-builder/build/sdcc-build/orig/sdcc/src/pic14/gen.c:1801:saveRegisters *{*
;; ***	saveRegisters  1803
;; 	2135 left AOP_LIT
;;; /home/sdcc-builder/build/sdcc-build/orig/sdcc/src/pic14/gen.c:1343:mov2w_op *{*
;; >>> /home/sdcc-builder/build/sdcc-build/orig/sdcc/src/pic14/gen.c:1361:mov2w_op
_00105_DS_
	.line	17; "led.c"	GPIO_InitPortPin(PORT_B, 0, GPIO_OUTPUT);
	MOVLW	0x00
;; 	2135 left AOP_LIT
;; >>> /home/sdcc-builder/build/sdcc-build/orig/sdcc/src/pic14/gen.c:2143:genCall
;; ***	popRegFromIdx,1042  , rIdx=0x7e
	MOVWF	STK01
;;; /home/sdcc-builder/build/sdcc-build/orig/sdcc/src/pic14/gen.c:1343:mov2w_op *{*
;; >>> /home/sdcc-builder/build/sdcc-build/orig/sdcc/src/pic14/gen.c:1361:mov2w_op
	MOVLW	0x00
;; 	2135 left AOP_LIT
;; >>> /home/sdcc-builder/build/sdcc-build/orig/sdcc/src/pic14/gen.c:2143:genCall
;; ***	popRegFromIdx,1042  , rIdx=0x7f
	MOVWF	STK00
;;; /home/sdcc-builder/build/sdcc-build/orig/sdcc/src/pic14/gen.c:1343:mov2w_op *{*
;; >>> /home/sdcc-builder/build/sdcc-build/orig/sdcc/src/pic14/gen.c:1361:mov2w_op
	MOVLW	0x01
;; >>> /home/sdcc-builder/build/sdcc-build/orig/sdcc/src/pic14/gen.c:2173:genCall
	PAGESEL	_GPIO_InitPortPin
;; >>> /home/sdcc-builder/build/sdcc-build/orig/sdcc/src/pic14/gen.c:2175:genCall
	CALL	_GPIO_InitPortPin
;; >>> /home/sdcc-builder/build/sdcc-build/orig/sdcc/src/pic14/gen.c:2181:genCall
	PAGESEL	$
;;; /home/sdcc-builder/build/sdcc-build/orig/sdcc/src/pic14/gen.c:1845:unsaveRegisters *{*
;; ***	unsaveRegisters  1847
;;; /home/sdcc-builder/build/sdcc-build/orig/sdcc/src/pic14/gen.c:2316:resultRemat *{*
;;; /home/sdcc-builder/build/sdcc-build/orig/sdcc/src/pic14/gen.c:2778:genGoto *{*
;; >>> /home/sdcc-builder/build/sdcc-build/orig/sdcc/src/pic14/gen.c:2780:genGoto
;; ***	popGetLabel  key=6, label offset 4
	.line	18; "led.c"	break;
	GOTO	_00110_DS_
;;; /home/sdcc-builder/build/sdcc-build/orig/sdcc/src/pic14/gen.c:2316:resultRemat *{*
;;; /home/sdcc-builder/build/sdcc-build/orig/sdcc/src/pic14/gen.c:2760:genLabel *{*
;; ***	genLabel  2763
;;; /home/sdcc-builder/build/sdcc-build/orig/sdcc/src/pic14/gen.c:2316:resultRemat *{*
;;; /home/sdcc-builder/build/sdcc-build/orig/sdcc/src/pic14/gen.c:2316:resultRemat *{*
;;; /home/sdcc-builder/build/sdcc-build/orig/sdcc/src/pic14/gen.c:2316:resultRemat *{*
;;; /home/sdcc-builder/build/sdcc-build/orig/sdcc/src/pic14/gen.c:2316:resultRemat *{*
;;; /home/sdcc-builder/build/sdcc-build/orig/sdcc/src/pic14/gen.c:2086:genCall *{*
;; ***	genCall  2088
;;; /home/sdcc-builder/build/sdcc-build/orig/sdcc/src/pic14/gen.c:1801:saveRegisters *{*
;; ***	saveRegisters  1803
;; 	2135 left AOP_LIT
;;; /home/sdcc-builder/build/sdcc-build/orig/sdcc/src/pic14/gen.c:1343:mov2w_op *{*
;; >>> /home/sdcc-builder/build/sdcc-build/orig/sdcc/src/pic14/gen.c:1361:mov2w_op
_00106_DS_
	.line	21; "led.c"	GPIO_InitPortPin(PORT_B, 1, GPIO_OUTPUT);
	MOVLW	0x00
;; 	2135 left AOP_LIT
;; >>> /home/sdcc-builder/build/sdcc-build/orig/sdcc/src/pic14/gen.c:2143:genCall
;; ***	popRegFromIdx,1042  , rIdx=0x7e
	MOVWF	STK01
;;; /home/sdcc-builder/build/sdcc-build/orig/sdcc/src/pic14/gen.c:1343:mov2w_op *{*
;; >>> /home/sdcc-builder/build/sdcc-build/orig/sdcc/src/pic14/gen.c:1361:mov2w_op
	MOVLW	0x01
;; 	2135 left AOP_LIT
;; >>> /home/sdcc-builder/build/sdcc-build/orig/sdcc/src/pic14/gen.c:2143:genCall
;; ***	popRegFromIdx,1042  , rIdx=0x7f
	MOVWF	STK00
;;; /home/sdcc-builder/build/sdcc-build/orig/sdcc/src/pic14/gen.c:1343:mov2w_op *{*
;; >>> /home/sdcc-builder/build/sdcc-build/orig/sdcc/src/pic14/gen.c:1361:mov2w_op
	MOVLW	0x01
;; >>> /home/sdcc-builder/build/sdcc-build/orig/sdcc/src/pic14/gen.c:2173:genCall
	PAGESEL	_GPIO_InitPortPin
;; >>> /home/sdcc-builder/build/sdcc-build/orig/sdcc/src/pic14/gen.c:2175:genCall
	CALL	_GPIO_InitPortPin
;; >>> /home/sdcc-builder/build/sdcc-build/orig/sdcc/src/pic14/gen.c:2181:genCall
	PAGESEL	$
;;; /home/sdcc-builder/build/sdcc-build/orig/sdcc/src/pic14/gen.c:1845:unsaveRegisters *{*
;; ***	unsaveRegisters  1847
;;; /home/sdcc-builder/build/sdcc-build/orig/sdcc/src/pic14/gen.c:2316:resultRemat *{*
;;; /home/sdcc-builder/build/sdcc-build/orig/sdcc/src/pic14/gen.c:2778:genGoto *{*
;; >>> /home/sdcc-builder/build/sdcc-build/orig/sdcc/src/pic14/gen.c:2780:genGoto
;; ***	popGetLabel  key=6, label offset 4
	.line	22; "led.c"	break;
	GOTO	_00110_DS_
;;; /home/sdcc-builder/build/sdcc-build/orig/sdcc/src/pic14/gen.c:2316:resultRemat *{*
;;; /home/sdcc-builder/build/sdcc-build/orig/sdcc/src/pic14/gen.c:2760:genLabel *{*
;; ***	genLabel  2763
;;; /home/sdcc-builder/build/sdcc-build/orig/sdcc/src/pic14/gen.c:2316:resultRemat *{*
;;; /home/sdcc-builder/build/sdcc-build/orig/sdcc/src/pic14/gen.c:2316:resultRemat *{*
;;; /home/sdcc-builder/build/sdcc-build/orig/sdcc/src/pic14/gen.c:2316:resultRemat *{*
;;; /home/sdcc-builder/build/sdcc-build/orig/sdcc/src/pic14/gen.c:2316:resultRemat *{*
;;; /home/sdcc-builder/build/sdcc-build/orig/sdcc/src/pic14/gen.c:2086:genCall *{*
;; ***	genCall  2088
;;; /home/sdcc-builder/build/sdcc-build/orig/sdcc/src/pic14/gen.c:1801:saveRegisters *{*
;; ***	saveRegisters  1803
;; 	2135 left AOP_LIT
;;; /home/sdcc-builder/build/sdcc-build/orig/sdcc/src/pic14/gen.c:1343:mov2w_op *{*
;; >>> /home/sdcc-builder/build/sdcc-build/orig/sdcc/src/pic14/gen.c:1361:mov2w_op
_00107_DS_
	.line	25; "led.c"	GPIO_InitPortPin(PORT_B, 2, GPIO_OUTPUT);
	MOVLW	0x00
;; 	2135 left AOP_LIT
;; >>> /home/sdcc-builder/build/sdcc-build/orig/sdcc/src/pic14/gen.c:2143:genCall
;; ***	popRegFromIdx,1042  , rIdx=0x7e
	MOVWF	STK01
;;; /home/sdcc-builder/build/sdcc-build/orig/sdcc/src/pic14/gen.c:1343:mov2w_op *{*
;; >>> /home/sdcc-builder/build/sdcc-build/orig/sdcc/src/pic14/gen.c:1361:mov2w_op
	MOVLW	0x02
;; 	2135 left AOP_LIT
;; >>> /home/sdcc-builder/build/sdcc-build/orig/sdcc/src/pic14/gen.c:2143:genCall
;; ***	popRegFromIdx,1042  , rIdx=0x7f
	MOVWF	STK00
;;; /home/sdcc-builder/build/sdcc-build/orig/sdcc/src/pic14/gen.c:1343:mov2w_op *{*
;; >>> /home/sdcc-builder/build/sdcc-build/orig/sdcc/src/pic14/gen.c:1361:mov2w_op
	MOVLW	0x01
;; >>> /home/sdcc-builder/build/sdcc-build/orig/sdcc/src/pic14/gen.c:2173:genCall
	PAGESEL	_GPIO_InitPortPin
;; >>> /home/sdcc-builder/build/sdcc-build/orig/sdcc/src/pic14/gen.c:2175:genCall
	CALL	_GPIO_InitPortPin
;; >>> /home/sdcc-builder/build/sdcc-build/orig/sdcc/src/pic14/gen.c:2181:genCall
	PAGESEL	$
;;; /home/sdcc-builder/build/sdcc-build/orig/sdcc/src/pic14/gen.c:1845:unsaveRegisters *{*
;; ***	unsaveRegisters  1847
;;; /home/sdcc-builder/build/sdcc-build/orig/sdcc/src/pic14/gen.c:2316:resultRemat *{*
;;; /home/sdcc-builder/build/sdcc-build/orig/sdcc/src/pic14/gen.c:2778:genGoto *{*
;; >>> /home/sdcc-builder/build/sdcc-build/orig/sdcc/src/pic14/gen.c:2780:genGoto
;; ***	popGetLabel  key=6, label offset 4
	.line	26; "led.c"	break;
	GOTO	_00110_DS_
;;; /home/sdcc-builder/build/sdcc-build/orig/sdcc/src/pic14/gen.c:2316:resultRemat *{*
;;; /home/sdcc-builder/build/sdcc-build/orig/sdcc/src/pic14/gen.c:2760:genLabel *{*
;; ***	genLabel  2763
;;; /home/sdcc-builder/build/sdcc-build/orig/sdcc/src/pic14/gen.c:2316:resultRemat *{*
;;; /home/sdcc-builder/build/sdcc-build/orig/sdcc/src/pic14/gen.c:2316:resultRemat *{*
;;; /home/sdcc-builder/build/sdcc-build/orig/sdcc/src/pic14/gen.c:2316:resultRemat *{*
;;; /home/sdcc-builder/build/sdcc-build/orig/sdcc/src/pic14/gen.c:2316:resultRemat *{*
;;; /home/sdcc-builder/build/sdcc-build/orig/sdcc/src/pic14/gen.c:2086:genCall *{*
;; ***	genCall  2088
;;; /home/sdcc-builder/build/sdcc-build/orig/sdcc/src/pic14/gen.c:1801:saveRegisters *{*
;; ***	saveRegisters  1803
;; 	2135 left AOP_LIT
;;; /home/sdcc-builder/build/sdcc-build/orig/sdcc/src/pic14/gen.c:1343:mov2w_op *{*
;; >>> /home/sdcc-builder/build/sdcc-build/orig/sdcc/src/pic14/gen.c:1361:mov2w_op
_00108_DS_
	.line	29; "led.c"	GPIO_InitPortPin(PORT_B, 3, GPIO_OUTPUT);
	MOVLW	0x00
;; 	2135 left AOP_LIT
;; >>> /home/sdcc-builder/build/sdcc-build/orig/sdcc/src/pic14/gen.c:2143:genCall
;; ***	popRegFromIdx,1042  , rIdx=0x7e
	MOVWF	STK01
;;; /home/sdcc-builder/build/sdcc-build/orig/sdcc/src/pic14/gen.c:1343:mov2w_op *{*
;; >>> /home/sdcc-builder/build/sdcc-build/orig/sdcc/src/pic14/gen.c:1361:mov2w_op
	MOVLW	0x03
;; 	2135 left AOP_LIT
;; >>> /home/sdcc-builder/build/sdcc-build/orig/sdcc/src/pic14/gen.c:2143:genCall
;; ***	popRegFromIdx,1042  , rIdx=0x7f
	MOVWF	STK00
;;; /home/sdcc-builder/build/sdcc-build/orig/sdcc/src/pic14/gen.c:1343:mov2w_op *{*
;; >>> /home/sdcc-builder/build/sdcc-build/orig/sdcc/src/pic14/gen.c:1361:mov2w_op
	MOVLW	0x01
;; >>> /home/sdcc-builder/build/sdcc-build/orig/sdcc/src/pic14/gen.c:2173:genCall
	PAGESEL	_GPIO_InitPortPin
;; >>> /home/sdcc-builder/build/sdcc-build/orig/sdcc/src/pic14/gen.c:2175:genCall
	CALL	_GPIO_InitPortPin
;; >>> /home/sdcc-builder/build/sdcc-build/orig/sdcc/src/pic14/gen.c:2181:genCall
	PAGESEL	$
;;; /home/sdcc-builder/build/sdcc-build/orig/sdcc/src/pic14/gen.c:1845:unsaveRegisters *{*
;; ***	unsaveRegisters  1847
;;; /home/sdcc-builder/build/sdcc-build/orig/sdcc/src/pic14/gen.c:2316:resultRemat *{*
;;; /home/sdcc-builder/build/sdcc-build/orig/sdcc/src/pic14/gen.c:2760:genLabel *{*
;; ***	genLabel  2763
;;; /home/sdcc-builder/build/sdcc-build/orig/sdcc/src/pic14/gen.c:2316:resultRemat *{*
;;; /home/sdcc-builder/build/sdcc-build/orig/sdcc/src/pic14/gen.c:2316:resultRemat *{*
;;; /home/sdcc-builder/build/sdcc-build/orig/sdcc/src/pic14/gen.c:2316:resultRemat *{*
;;; /home/sdcc-builder/build/sdcc-build/orig/sdcc/src/pic14/gen.c:2086:genCall *{*
;; ***	genCall  2088
;;; /home/sdcc-builder/build/sdcc-build/orig/sdcc/src/pic14/gen.c:1801:saveRegisters *{*
;; ***	saveRegisters  1803
;;	694 register type nRegs=1
;;	694 register type nRegs=1
;;	694 register type nRegs=1
;; 	2135 left AOP_REG
;;; /home/sdcc-builder/build/sdcc-build/orig/sdcc/src/pic14/gen.c:1343:mov2w_op *{*
;; ***	mov2w  1381  offset=0
;; >>> /home/sdcc-builder/build/sdcc-build/orig/sdcc/src/pic14/gen.c:1386:mov2w
;;	1109 rIdx = r0x1049 
_00110_DS_
	.line	36; "led.c"	LED_SetState(led, initial_state);
	BANKSEL	r0x1005
	MOVF	r0x1005,W
;;	694 register type nRegs=1
;; 	2135 left AOP_REG
;; >>> /home/sdcc-builder/build/sdcc-build/orig/sdcc/src/pic14/gen.c:2143:genCall
;; ***	popRegFromIdx,1042  , rIdx=0x7f
	MOVWF	STK00
;;; /home/sdcc-builder/build/sdcc-build/orig/sdcc/src/pic14/gen.c:1343:mov2w_op *{*
;; ***	mov2w  1381  offset=0
;; >>> /home/sdcc-builder/build/sdcc-build/orig/sdcc/src/pic14/gen.c:1386:mov2w
;;	1109 rIdx = r0x1048 
	MOVF	r0x1004,W
;; >>> /home/sdcc-builder/build/sdcc-build/orig/sdcc/src/pic14/gen.c:2173:genCall
	PAGESEL	_LED_SetState
;; >>> /home/sdcc-builder/build/sdcc-build/orig/sdcc/src/pic14/gen.c:2175:genCall
	CALL	_LED_SetState
;; >>> /home/sdcc-builder/build/sdcc-build/orig/sdcc/src/pic14/gen.c:2181:genCall
	PAGESEL	$
;;; /home/sdcc-builder/build/sdcc-build/orig/sdcc/src/pic14/gen.c:1845:unsaveRegisters *{*
;; ***	unsaveRegisters  1847
;;; /home/sdcc-builder/build/sdcc-build/orig/sdcc/src/pic14/gen.c:2316:resultRemat *{*
;;; /home/sdcc-builder/build/sdcc-build/orig/sdcc/src/pic14/gen.c:2760:genLabel *{*
;; ***	genLabel  2763
;;; /home/sdcc-builder/build/sdcc-build/orig/sdcc/src/pic14/gen.c:2316:resultRemat *{*
;;; /home/sdcc-builder/build/sdcc-build/orig/sdcc/src/pic14/gen.c:2528:genEndFunction *{*
;; ***	genEndFunction  2530
	RETURN	
; exit point of _LED_Init
;;; /home/sdcc-builder/build/sdcc-build/orig/sdcc/src/pic14/gen.c:7426:genpic14Code *{*


;	code size estimation:
;	  161+   53 =   214 instructions (  534 byte)

	end
